
========================================================================

** ELF Header Information

    File Name: F103_Moduel\F103_Moduel.axf

    Machine class: ELFCLASS32 (32-bit)
    Data encoding: ELFDATA2LSB (Little endian)
    Header version: EV_CURRENT (Current version)
    Operating System ABI: none
    ABI Version: 0
    File Type: ET_EXEC (Executable) (2)
    Machine: EM_ARM (ARM)

    Image Entry point: 0x08000131
    Flags: EF_ARM_HASENTRY + EF_ARM_ABI_FLOAT_SOFT (0x05000202)

    ARM ELF revision: 5 (ABI version 2)

    Conforms to Soft float procedure-call standard

    Built with
    Component: ARM Compiler 5.06 update 7 (build 960) Tool: armasm [4d35fa]
    Component: ARM Compiler 5.06 update 7 (build 960) Tool: armlink [4d3601]

    Header size: 52 bytes (0x34)
    Program header entry size: 32 bytes (0x20)
    Section header entry size: 40 bytes (0x28)

    Program header entries: 1
    Section header entries: 16

    Program header offset: 802968 (0x000c4098)
    Section header offset: 803000 (0x000c40b8)

    Section header string table index: 15

========================================================================

** Program header #0 (PT_LOAD) [PF_X + PF_W + PF_R + PF_ARM_ENTRY]
    Size : 27000 bytes (18376 bytes in file)
    Virtual address: 0x08000000 (Alignment 8)


========================================================================

** Section #1 'ER_IROM1' (SHT_PROGBITS) [SHF_ALLOC + SHF_EXECINSTR]
    Size   : 18224 bytes (alignment 4)
    Address: 0x08000000

    $d.realdata
    RESET
    __Vectors
        0x08000000:    20002248    H".     DCD    536879688
        0x08000004:    080001e1    ....    DCD    134218209
        0x08000008:    08001bf1    ....    DCD    134224881
        0x0800000c:    080001eb    ....    DCD    134218219
        0x08000010:    08001bed    ....    DCD    134224877
        0x08000014:    080003a5    ....    DCD    134218661
        0x08000018:    08002095    . ..    DCD    134226069
        0x0800001c:    00000000    ....    DCD    0
        0x08000020:    00000000    ....    DCD    0
        0x08000024:    00000000    ....    DCD    0
        0x08000028:    00000000    ....    DCD    0
        0x0800002c:    08000149    I...    DCD    134218057
        0x08000030:    080003e5    ....    DCD    134218725
        0x08000034:    00000000    ....    DCD    0
        0x08000038:    0800018d    ....    DCD    134218125
        0x0800003c:    08001c41    A...    DCD    134224961
        0x08000040:    0800022d    -...    DCD    134218285
        0x08000044:    0800022d    -...    DCD    134218285
        0x08000048:    0800022d    -...    DCD    134218285
        0x0800004c:    0800022d    -...    DCD    134218285
        0x08000050:    0800022d    -...    DCD    134218285
        0x08000054:    0800022d    -...    DCD    134218285
        0x08000058:    0800022d    -...    DCD    134218285
        0x0800005c:    0800022d    -...    DCD    134218285
        0x08000060:    0800022d    -...    DCD    134218285
        0x08000064:    0800022d    -...    DCD    134218285
        0x08000068:    0800022d    -...    DCD    134218285
        0x0800006c:    0800022d    -...    DCD    134218285
        0x08000070:    0800022d    -...    DCD    134218285
        0x08000074:    0800022d    -...    DCD    134218285
        0x08000078:    0800022d    -...    DCD    134218285
        0x0800007c:    0800022d    -...    DCD    134218285
        0x08000080:    0800022d    -...    DCD    134218285
        0x08000084:    0800022d    -...    DCD    134218285
        0x08000088:    0800022d    -...    DCD    134218285
        0x0800008c:    0800022d    -...    DCD    134218285
        0x08000090:    0800022d    -...    DCD    134218285
        0x08000094:    0800022d    -...    DCD    134218285
        0x08000098:    0800022d    -...    DCD    134218285
        0x0800009c:    0800022d    -...    DCD    134218285
        0x080000a0:    0800022d    -...    DCD    134218285
        0x080000a4:    0800022d    -...    DCD    134218285
        0x080000a8:    0800022d    -...    DCD    134218285
        0x080000ac:    0800022d    -...    DCD    134218285
        0x080000b0:    0800022d    -...    DCD    134218285
        0x080000b4:    0800022d    -...    DCD    134218285
        0x080000b8:    0800022d    -...    DCD    134218285
        0x080000bc:    0800022d    -...    DCD    134218285
        0x080000c0:    0800022d    -...    DCD    134218285
        0x080000c4:    0800022d    -...    DCD    134218285
        0x080000c8:    0800022d    -...    DCD    134218285
        0x080000cc:    0800022d    -...    DCD    134218285
        0x080000d0:    0800022d    -...    DCD    134218285
        0x080000d4:    08002051    Q ..    DCD    134226001
        0x080000d8:    0800022d    -...    DCD    134218285
        0x080000dc:    08002085    . ..    DCD    134226053
        0x080000e0:    080003e7    ....    DCD    134218727
        0x080000e4:    0800022d    -...    DCD    134218285
        0x080000e8:    0800022d    -...    DCD    134218285
        0x080000ec:    0800022d    -...    DCD    134218285
        0x080000f0:    08001cdd    ....    DCD    134225117
        0x080000f4:    0800022d    -...    DCD    134218285
        0x080000f8:    0800022d    -...    DCD    134218285
        0x080000fc:    0800022d    -...    DCD    134218285
        0x08000100:    0800022d    -...    DCD    134218285
        0x08000104:    0800022d    -...    DCD    134218285
        0x08000108:    0800022d    -...    DCD    134218285
        0x0800010c:    0800022d    -...    DCD    134218285
        0x08000110:    0800022d    -...    DCD    134218285
        0x08000114:    0800022d    -...    DCD    134218285
        0x08000118:    0800022d    -...    DCD    134218285
        0x0800011c:    0800022d    -...    DCD    134218285
        0x08000120:    0800022d    -...    DCD    134218285
        0x08000124:    0800022d    -...    DCD    134218285
        0x08000128:    0800022d    -...    DCD    134218285
        0x0800012c:    0800022d    -...    DCD    134218285
    $t
    .ARM.Collect$$$$00000000
    .ARM.Collect$$$$00000001
    __Vectors_End
    __main
    _main_stk
        0x08000130:    f8dfd010    ....    LDR      sp,__lit__00000000 ; [0x8000144] = 0x20002248
    .ARM.Collect$$$$00000004
    _main_scatterload
        0x08000134:    f000f8e6    ....    BL       __scatterload ; 0x8000304
    .ARM.Collect$$$$00000008
    .ARM.Collect$$$$0000000A
    .ARM.Collect$$$$0000000B
    __main_after_scatterload
    _main_clock
    _main_cpp_init
    _main_init
        0x08000138:    4800        .H      LDR      r0,[pc,#0] ; [0x800013c] = 0x8002595
        0x0800013a:    4700        .G      BX       r0
    $d
        0x0800013c:    08002595    .%..    DCD    134227349
    $t
    .ARM.Collect$$$$0000000E
    __rt_lib_shutdown_fini
        0x08000140:    f3af8000    ....    NOP.W    
    $d
    .ARM.Collect$$$$00002712
    __lit__00000000
    .ARM.Collect$$$$0000000F
    .ARM.Collect$$$$00000011
    __rt_final_cpp
    __rt_final_exit
        0x08000144:    20002248    H".     DCD    536879688
    $t
    .emb_text
    SVC_Handler
        0x08000148:    4b22        "K      LDR      r3,[pc,#136] ; [0x80001d4] = 0x2000001c
        0x0800014a:    6819        .h      LDR      r1,[r3,#0]
        0x0800014c:    6808        .h      LDR      r0,[r1,#0]
        0x0800014e:    e8b00ff0    ....    LDM      r0!,{r4-r11}
        0x08000152:    f3808809    ....    MSR      PSP,r0
        0x08000156:    f3bf8f6f    ..o.    ISB      
        0x0800015a:    f04f0000    O...    MOV      r0,#0
        0x0800015e:    f3808811    ....    MSR      BASEPRI,r0
        0x08000162:    f04e0e0d    N...    ORR      lr,lr,#0xd
        0x08000166:    4770        pG      BX       lr
    $d
        0x08000168:    00000000    ....    DCD    0
    $t
    __asm___6_port_c_39a90d8d__prvStartFirstTask
        0x0800016c:    4806        .H      LDR      r0,[pc,#24] ; [0x8000188] = 0xe000ed08
        0x0800016e:    6800        .h      LDR      r0,[r0,#0]
        0x08000170:    6800        .h      LDR      r0,[r0,#0]
        0x08000172:    f3808808    ....    MSR      MSP,r0
        0x08000176:    b662        b.      CPSIE    i
        0x08000178:    b661        a.      CPSIE    f
        0x0800017a:    f3bf8f4f    ..O.    DSB      
        0x0800017e:    f3bf8f6f    ..o.    ISB      
        0x08000182:    df00        ..      SVC      #0x0 ; formerly SWI
        0x08000184:    bf00        ..      NOP      
        0x08000186:    bf00        ..      NOP      
    $d
        0x08000188:    e000ed08    ....    DCD    3758157064
    $t
    PendSV_Handler
        0x0800018c:    f3ef8009    ....    MRS      r0,PSP
        0x08000190:    f3bf8f6f    ..o.    ISB      
        0x08000194:    4b0f        .K      LDR      r3,[pc,#60] ; [0x80001d4] = 0x2000001c
        0x08000196:    681a        .h      LDR      r2,[r3,#0]
        0x08000198:    e9200ff0     ...    STMDB    r0!,{r4-r11}
        0x0800019c:    6010        .`      STR      r0,[r2,#0]
        0x0800019e:    b508        ..      PUSH     {r3,lr}
        0x080001a0:    f04f0050    O.P.    MOV      r0,#0x50
        0x080001a4:    f3808811    ....    MSR      BASEPRI,r0
        0x080001a8:    f3bf8f4f    ..O.    DSB      
        0x080001ac:    f3bf8f6f    ..o.    ISB      
        0x080001b0:    f003fbdc    ....    BL       vTaskSwitchContext ; 0x800396c
        0x080001b4:    f04f0000    O...    MOV      r0,#0
        0x080001b8:    f3808811    ....    MSR      BASEPRI,r0
        0x080001bc:    e8bd4008    ...@    POP      {r3,lr}
        0x080001c0:    6819        .h      LDR      r1,[r3,#0]
        0x080001c2:    6808        .h      LDR      r0,[r1,#0]
        0x080001c4:    e8b00ff0    ....    LDM      r0!,{r4-r11}
        0x080001c8:    f3808809    ....    MSR      PSP,r0
        0x080001cc:    f3bf8f6f    ..o.    ISB      
        0x080001d0:    4770        pG      BX       lr
        0x080001d2:    bf00        ..      NOP      
    $d
        0x080001d4:    2000001c    ...     DCD    536870940
    $t
    vPortGetIPSR
        0x080001d8:    f3ef8005    ....    MRS      r0,IPSR
        0x080001dc:    4770        pG      BX       lr
        0x080001de:    0000        ..      MOVS     r0,r0
    .text
    Reset_Handler
        0x080001e0:    4813        .H      LDR      r0,[pc,#76] ; [0x8000230] = 0x8001cdb
        0x080001e2:    4780        .G      BLX      r0
        0x080001e4:    4813        .H      LDR      r0,[pc,#76] ; [0x8000234] = 0x8000131
        0x080001e6:    4700        .G      BX       r0
        0x080001e8:    e7fe        ..      B        0x80001e8 ; Reset_Handler + 8
    HardFault_Handler
        0x080001ea:    f01e0f04    ....    TST      lr,#4
        0x080001ee:    bf0c        ..      ITE      EQ
        0x080001f0:    f3ef8008    ....    MRSEQ    r0,MSP
        0x080001f4:    f3ef8009    ....    MRSNE    r0,PSP
        0x080001f8:    e9200ff0     ...    STMDB    r0!,{r4-r11}
        0x080001fc:    f840ed04    @...    STR      lr,[r0,#-4]!
        0x08000200:    f01e0f04    ....    TST      lr,#4
        0x08000204:    bf0c        ..      ITE      EQ
        0x08000206:    f3808808    ....    MSREQ    MSP,r0
        0x0800020a:    f3808809    ....    MSRNE    PSP,r0
        0x0800020e:    b500        ..      PUSH     {lr}
        0x08000210:    f003f860    ..`.    BL       rt_hw_hard_fault_exception ; 0x80032d4
        0x08000214:    f85deb04    ]...    POP      {lr}
        0x08000218:    f04e0e04    N...    ORR      lr,lr,#4
        0x0800021c:    4770        pG      BX       lr
        0x0800021e:    e7fe        ..      B        0x800021e ; HardFault_Handler + 52
        0x08000220:    e7fe        ..      B        0x8000220 ; HardFault_Handler + 54
        0x08000222:    e7fe        ..      B        0x8000222 ; HardFault_Handler + 56
        0x08000224:    e7fe        ..      B        0x8000224 ; HardFault_Handler + 58
        0x08000226:    e7fe        ..      B        0x8000226 ; HardFault_Handler + 60
        0x08000228:    e7fe        ..      B        0x8000228 ; HardFault_Handler + 62
        0x0800022a:    e7fe        ..      B        0x800022a ; HardFault_Handler + 64
    ADC1_2_IRQHandler
    ADC3_IRQHandler
    CAN1_RX1_IRQHandler
    CAN1_SCE_IRQHandler
    DMA1_Channel1_IRQHandler
    DMA1_Channel2_IRQHandler
    DMA1_Channel3_IRQHandler
    DMA1_Channel4_IRQHandler
    DMA1_Channel5_IRQHandler
    DMA1_Channel6_IRQHandler
    DMA1_Channel7_IRQHandler
    DMA2_Channel1_IRQHandler
    DMA2_Channel2_IRQHandler
    DMA2_Channel3_IRQHandler
    DMA2_Channel4_5_IRQHandler
    EXTI0_IRQHandler
    EXTI1_IRQHandler
    EXTI2_IRQHandler
    EXTI3_IRQHandler
    EXTI4_IRQHandler
    EXTI9_5_IRQHandler
    FLASH_IRQHandler
    FSMC_IRQHandler
    I2C1_ER_IRQHandler
    I2C1_EV_IRQHandler
    I2C2_ER_IRQHandler
    I2C2_EV_IRQHandler
    PVD_IRQHandler
    RCC_IRQHandler
    RTC_Alarm_IRQHandler
    RTC_IRQHandler
    SDIO_IRQHandler
    SPI1_IRQHandler
    SPI2_IRQHandler
    SPI3_IRQHandler
    TAMPER_IRQHandler
    TIM1_BRK_IRQHandler
    TIM1_CC_IRQHandler
    TIM1_TRG_COM_IRQHandler
    TIM1_UP_IRQHandler
    TIM2_IRQHandler
    TIM3_IRQHandler
    TIM4_IRQHandler
    TIM5_IRQHandler
    TIM6_IRQHandler
    TIM7_IRQHandler
    TIM8_BRK_IRQHandler
    TIM8_CC_IRQHandler
    TIM8_TRG_COM_IRQHandler
    UART4_IRQHandler
    UART5_IRQHandler
    USART2_IRQHandler
    USBWakeUp_IRQHandler
    USB_HP_CAN1_TX_IRQHandler
    USB_LP_CAN1_RX0_IRQHandler
    WWDG_IRQHandler
        0x0800022c:    e7fe        ..      B        ADC1_2_IRQHandler ; 0x800022c
    $d
        0x0800022e:    0000        ..      DCW    0
        0x08000230:    08001cdb    ....    DCD    134225115
        0x08000234:    08000131    1...    DCD    134218033
    $t
    .text
    __aeabi_llsr
    _ll_ushift_r
        0x08000238:    2a20         *      CMP      r2,#0x20
        0x0800023a:    db04        ..      BLT      0x8000246 ; __aeabi_llsr + 14
        0x0800023c:    3a20         :      SUBS     r2,r2,#0x20
        0x0800023e:    fa21f002    !...    LSR      r0,r1,r2
        0x08000242:    2100        .!      MOVS     r1,#0
        0x08000244:    4770        pG      BX       lr
        0x08000246:    fa21f302    !...    LSR      r3,r1,r2
        0x0800024a:    40d0        .@      LSRS     r0,r0,r2
        0x0800024c:    f1c20220    .. .    RSB      r2,r2,#0x20
        0x08000250:    4091        .@      LSLS     r1,r1,r2
        0x08000252:    4308        .C      ORRS     r0,r0,r1
        0x08000254:    4619        .F      MOV      r1,r3
        0x08000256:    4770        pG      BX       lr
    .text
    __aeabi_memcpy
    __aeabi_memcpy4
    __aeabi_memcpy8
        0x08000258:    ea400301    @...    ORR      r3,r0,r1
        0x0800025c:    079b        ..      LSLS     r3,r3,#30
        0x0800025e:    d003        ..      BEQ      0x8000268 ; __aeabi_memcpy + 16
        0x08000260:    e009        ..      B        0x8000276 ; __aeabi_memcpy + 30
        0x08000262:    c908        ..      LDM      r1!,{r3}
        0x08000264:    1f12        ..      SUBS     r2,r2,#4
        0x08000266:    c008        ..      STM      r0!,{r3}
        0x08000268:    2a04        .*      CMP      r2,#4
        0x0800026a:    d2fa        ..      BCS      0x8000262 ; __aeabi_memcpy + 10
        0x0800026c:    e003        ..      B        0x8000276 ; __aeabi_memcpy + 30
        0x0800026e:    f8113b01    ...;    LDRB     r3,[r1],#1
        0x08000272:    f8003b01    ...;    STRB     r3,[r0],#1
        0x08000276:    1e52        R.      SUBS     r2,r2,#1
        0x08000278:    d2f9        ..      BCS      0x800026e ; __aeabi_memcpy + 22
        0x0800027a:    4770        pG      BX       lr
    .text
    __aeabi_memset
    __aeabi_memset4
    __aeabi_memset8
        0x0800027c:    b2d2        ..      UXTB     r2,r2
        0x0800027e:    e001        ..      B        0x8000284 ; __aeabi_memset + 8
        0x08000280:    f8002b01    ...+    STRB     r2,[r0],#1
        0x08000284:    1e49        I.      SUBS     r1,r1,#1
        0x08000286:    d2fb        ..      BCS      0x8000280 ; __aeabi_memset + 4
        0x08000288:    4770        pG      BX       lr
    __aeabi_memclr
    __aeabi_memclr4
    __aeabi_memclr8
        0x0800028a:    2200        ."      MOVS     r2,#0
        0x0800028c:    e7f6        ..      B        __aeabi_memset ; 0x800027c
    memset
        0x0800028e:    b510        ..      PUSH     {r4,lr}
        0x08000290:    4613        .F      MOV      r3,r2
        0x08000292:    460a        .F      MOV      r2,r1
        0x08000294:    4604        .F      MOV      r4,r0
        0x08000296:    4619        .F      MOV      r1,r3
        0x08000298:    f7fffff0    ....    BL       __aeabi_memset ; 0x800027c
        0x0800029c:    4620         F      MOV      r0,r4
        0x0800029e:    bd10        ..      POP      {r4,pc}
    .text
    __aeabi_uldivmod
        0x080002a0:    e92d5ff0    -.._    PUSH     {r4-r12,lr}
        0x080002a4:    4605        .F      MOV      r5,r0
        0x080002a6:    2000        .       MOVS     r0,#0
        0x080002a8:    4692        .F      MOV      r10,r2
        0x080002aa:    469b        .F      MOV      r11,r3
        0x080002ac:    4688        .F      MOV      r8,r1
        0x080002ae:    4606        .F      MOV      r6,r0
        0x080002b0:    4681        .F      MOV      r9,r0
        0x080002b2:    2440        @$      MOVS     r4,#0x40
        0x080002b4:    e01b        ..      B        0x80002ee ; __aeabi_uldivmod + 78
        0x080002b6:    4628        (F      MOV      r0,r5
        0x080002b8:    4641        AF      MOV      r1,r8
        0x080002ba:    4647        GF      MOV      r7,r8
        0x080002bc:    4622        "F      MOV      r2,r4
        0x080002be:    f7ffffbb    ....    BL       __aeabi_llsr ; 0x8000238
        0x080002c2:    4653        SF      MOV      r3,r10
        0x080002c4:    465a        ZF      MOV      r2,r11
        0x080002c6:    1ac0        ..      SUBS     r0,r0,r3
        0x080002c8:    4191        .A      SBCS     r1,r1,r2
        0x080002ca:    d310        ..      BCC      0x80002ee ; __aeabi_uldivmod + 78
        0x080002cc:    4611        .F      MOV      r1,r2
        0x080002ce:    4618        .F      MOV      r0,r3
        0x080002d0:    4622        "F      MOV      r2,r4
        0x080002d2:    f000f829    ..).    BL       __aeabi_llsl ; 0x8000328
        0x080002d6:    1a2d        -.      SUBS     r5,r5,r0
        0x080002d8:    eb670801    g...    SBC      r8,r7,r1
        0x080002dc:    464f        OF      MOV      r7,r9
        0x080002de:    4622        "F      MOV      r2,r4
        0x080002e0:    2001        .       MOVS     r0,#1
        0x080002e2:    2100        .!      MOVS     r1,#0
        0x080002e4:    f000f820    .. .    BL       __aeabi_llsl ; 0x8000328
        0x080002e8:    eb170900    ....    ADDS     r9,r7,r0
        0x080002ec:    414e        NA      ADCS     r6,r6,r1
        0x080002ee:    1e20         .      SUBS     r0,r4,#0
        0x080002f0:    f1a40401    ....    SUB      r4,r4,#1
        0x080002f4:    dcdf        ..      BGT      0x80002b6 ; __aeabi_uldivmod + 22
        0x080002f6:    4648        HF      MOV      r0,r9
        0x080002f8:    4631        1F      MOV      r1,r6
        0x080002fa:    462a        *F      MOV      r2,r5
        0x080002fc:    4643        CF      MOV      r3,r8
        0x080002fe:    e8bd9ff0    ....    POP      {r4-r12,pc}
        0x08000302:    0000        ..      MOVS     r0,r0
    .text
    __scatterload
    __scatterload_rt2
        0x08000304:    4c06        .L      LDR      r4,[pc,#24] ; [0x8000320] = 0x8004710
        0x08000306:    4d07        .M      LDR      r5,[pc,#28] ; [0x8000324] = 0x8004730
        0x08000308:    e006        ..      B        0x8000318 ; __scatterload + 20
        0x0800030a:    68e0        .h      LDR      r0,[r4,#0xc]
        0x0800030c:    f0400301    @...    ORR      r3,r0,#1
        0x08000310:    e8940007    ....    LDM      r4,{r0-r2}
        0x08000314:    4798        .G      BLX      r3
        0x08000316:    3410        .4      ADDS     r4,r4,#0x10
        0x08000318:    42ac        .B      CMP      r4,r5
        0x0800031a:    d3f6        ..      BCC      0x800030a ; __scatterload + 6
        0x0800031c:    f7ffff0c    ....    BL       __main_after_scatterload ; 0x8000138
    $d
        0x08000320:    08004710    .G..    DCD    134235920
        0x08000324:    08004730    0G..    DCD    134235952
    $t
    .text
    __aeabi_llsl
    _ll_shift_l
        0x08000328:    2a20         *      CMP      r2,#0x20
        0x0800032a:    db04        ..      BLT      0x8000336 ; __aeabi_llsl + 14
        0x0800032c:    3a20         :      SUBS     r2,r2,#0x20
        0x0800032e:    fa00f102    ....    LSL      r1,r0,r2
        0x08000332:    2000        .       MOVS     r0,#0
        0x08000334:    4770        pG      BX       lr
        0x08000336:    4091        .@      LSLS     r1,r1,r2
        0x08000338:    f1c20320    .. .    RSB      r3,r2,#0x20
        0x0800033c:    fa20f303     ...    LSR      r3,r0,r3
        0x08000340:    4319        .C      ORRS     r1,r1,r3
        0x08000342:    4090        .@      LSLS     r0,r0,r2
        0x08000344:    4770        pG      BX       lr
        0x08000346:    0000        ..      MOVS     r0,r0
    i.A
    A
        0x08000348:    b510        ..      PUSH     {r4,lr}
        0x0800034a:    a004        ..      ADR      r0,{pc}+0x12 ; 0x800035c
        0x0800034c:    f001fea4    ....    BL       __0printf$8 ; 0x8002098
        0x08000350:    f000f810    ....    BL       B ; 0x8000374
        0x08000354:    a004        ..      ADR      r0,{pc}+0x14 ; 0x8000368
        0x08000356:    f001fe9f    ....    BL       __0printf$8 ; 0x8002098
        0x0800035a:    bd10        ..      POP      {r4,pc}
    $d
        0x0800035c:    65746e45    Ente    DCD    1702129221
        0x08000360:    28412072    r A(    DCD    675356786
        0x08000364:    000a0d29    )...    DCD    658729
        0x08000368:    74697845    Exit    DCD    1953069125
        0x0800036c:    29284120     A()    DCD    690503968
        0x08000370:    00000a0d    ....    DCD    2573
    $t
    i.B
    B
        0x08000374:    b510        ..      PUSH     {r4,lr}
        0x08000376:    a005        ..      ADR      r0,{pc}+0x16 ; 0x800038c
        0x08000378:    f001fe8e    ....    BL       __0printf$8 ; 0x8002098
        0x0800037c:    2000        .       MOVS     r0,#0
        0x0800037e:    f000f813    ....    BL       C ; 0x80003a8
        0x08000382:    a005        ..      ADR      r0,{pc}+0x16 ; 0x8000398
        0x08000384:    f001fe88    ....    BL       __0printf$8 ; 0x8002098
        0x08000388:    bd10        ..      POP      {r4,pc}
    $d
        0x0800038a:    0000        ..      DCW    0
        0x0800038c:    65746e45    Ente    DCD    1702129221
        0x08000390:    28422072    r B(    DCD    675422322
        0x08000394:    000a0d29    )...    DCD    658729
        0x08000398:    74697845    Exit    DCD    1953069125
        0x0800039c:    29284220     B()    DCD    690504224
        0x080003a0:    00000a0d    ....    DCD    2573
    $t
    i.BusFault_Handler
    BusFault_Handler
        0x080003a4:    bf00        ..      NOP      
        0x080003a6:    e7fe        ..      B        0x80003a6 ; BusFault_Handler + 2
    i.C
    C
        0x080003a8:    4601        .F      MOV      r1,r0
        0x080003aa:    2064        d       MOVS     r0,#0x64
        0x080003ac:    fb90f0f1    ....    SDIV     r0,r0,r1
        0x080003b0:    4770        pG      BX       lr
        0x080003b2:    0000        ..      MOVS     r0,r0
    i.D
    D
        0x080003b4:    b510        ..      PUSH     {r4,lr}
        0x080003b6:    a005        ..      ADR      r0,{pc}+0x16 ; 0x80003cc
        0x080003b8:    f001fe6e    ..n.    BL       __0printf$8 ; 0x8002098
        0x080003bc:    2001        .       MOVS     r0,#1
        0x080003be:    f7fffff3    ....    BL       C ; 0x80003a8
        0x080003c2:    a005        ..      ADR      r0,{pc}+0x16 ; 0x80003d8
        0x080003c4:    f001fe68    ..h.    BL       __0printf$8 ; 0x8002098
        0x080003c8:    bd10        ..      POP      {r4,pc}
    $d
        0x080003ca:    0000        ..      DCW    0
        0x080003cc:    65746e45    Ente    DCD    1702129221
        0x080003d0:    28442072    r D(    DCD    675553394
        0x080003d4:    000a0d29    )...    DCD    658729
        0x080003d8:    74697845    Exit    DCD    1953069125
        0x080003dc:    29284420     D()    DCD    690504736
        0x080003e0:    00000a0d    ....    DCD    2573
    $t
    i.DebugMon_Handler
    DebugMon_Handler
        0x080003e4:    4770        pG      BX       lr
    i.EXTI15_10_IRQHandler
    EXTI15_10_IRQHandler
        0x080003e6:    b510        ..      PUSH     {r4,lr}
        0x080003e8:    f44f4080    O..@    MOV      r0,#0x4000
        0x080003ec:    f000f93a    ..:.    BL       HAL_GPIO_EXTI_IRQHandler ; 0x8000664
        0x080003f0:    f44f4000    O..@    MOV      r0,#0x8000
        0x080003f4:    f000f936    ..6.    BL       HAL_GPIO_EXTI_IRQHandler ; 0x8000664
        0x080003f8:    bd10        ..      POP      {r4,pc}
        0x080003fa:    0000        ..      MOVS     r0,r0
    i.EnableDebugIRQ
    EnableDebugIRQ
        0x080003fc:    b510        ..      PUSH     {r4,lr}
        0x080003fe:    2201        ."      MOVS     r2,#1
        0x08000400:    2100        .!      MOVS     r1,#0
        0x08000402:    2025        %       MOVS     r0,#0x25
        0x08000404:    f000fb94    ....    BL       HAL_NVIC_SetPriority ; 0x8000b30
        0x08000408:    2025        %       MOVS     r0,#0x25
        0x0800040a:    f000fb81    ....    BL       HAL_NVIC_EnableIRQ ; 0x8000b10
        0x0800040e:    4804        .H      LDR      r0,[pc,#16] ; [0x8000420] = 0x200004a0
        0x08000410:    6800        .h      LDR      r0,[r0,#0]
        0x08000412:    68c0        .h      LDR      r0,[r0,#0xc]
        0x08000414:    f0400020    @. .    ORR      r0,r0,#0x20
        0x08000418:    4901        .I      LDR      r1,[pc,#4] ; [0x8000420] = 0x200004a0
        0x0800041a:    6809        .h      LDR      r1,[r1,#0]
        0x0800041c:    60c8        .`      STR      r0,[r1,#0xc]
        0x0800041e:    bd10        ..      POP      {r4,pc}
    $d
        0x08000420:    200004a0    ...     DCD    536872096
    $t
    i.Error_Handler
    Error_Handler
        0x08000424:    b672        r.      CPSID    i
        0x08000426:    bf00        ..      NOP      
        0x08000428:    e7fe        ..      B        0x8000428 ; Error_Handler + 4
    i.HAL_DMA_Abort
    HAL_DMA_Abort
        0x0800042a:    4601        .F      MOV      r1,r0
        0x0800042c:    2200        ."      MOVS     r2,#0
        0x0800042e:    f8910021    ..!.    LDRB     r0,[r1,#0x21]
        0x08000432:    2802        .(      CMP      r0,#2
        0x08000434:    d008        ..      BEQ      0x8000448 ; HAL_DMA_Abort + 30
        0x08000436:    2004        .       MOVS     r0,#4
        0x08000438:    6388        .c      STR      r0,[r1,#0x38]
        0x0800043a:    bf00        ..      NOP      
        0x0800043c:    2000        .       MOVS     r0,#0
        0x0800043e:    f8810020    .. .    STRB     r0,[r1,#0x20]
        0x08000442:    bf00        ..      NOP      
        0x08000444:    2001        .       MOVS     r0,#1
        0x08000446:    4770        pG      BX       lr
        0x08000448:    6808        .h      LDR      r0,[r1,#0]
        0x0800044a:    6800        .h      LDR      r0,[r0,#0]
        0x0800044c:    f020000e     ...    BIC      r0,r0,#0xe
        0x08000450:    680b        .h      LDR      r3,[r1,#0]
        0x08000452:    6018        .`      STR      r0,[r3,#0]
        0x08000454:    6808        .h      LDR      r0,[r1,#0]
        0x08000456:    6800        .h      LDR      r0,[r0,#0]
        0x08000458:    f0200001     ...    BIC      r0,r0,#1
        0x0800045c:    680b        .h      LDR      r3,[r1,#0]
        0x0800045e:    6018        .`      STR      r0,[r3,#0]
        0x08000460:    f8913040    ..@0    LDRB     r3,[r1,#0x40]
        0x08000464:    2001        .       MOVS     r0,#1
        0x08000466:    4098        .@      LSLS     r0,r0,r3
        0x08000468:    6bcb        .k      LDR      r3,[r1,#0x3c]
        0x0800046a:    6058        X`      STR      r0,[r3,#4]
        0x0800046c:    2001        .       MOVS     r0,#1
        0x0800046e:    f8810021    ..!.    STRB     r0,[r1,#0x21]
        0x08000472:    bf00        ..      NOP      
        0x08000474:    2000        .       MOVS     r0,#0
        0x08000476:    f8810020    .. .    STRB     r0,[r1,#0x20]
        0x0800047a:    bf00        ..      NOP      
        0x0800047c:    4610        .F      MOV      r0,r2
        0x0800047e:    e7e2        ..      B        0x8000446 ; HAL_DMA_Abort + 28
    i.HAL_DMA_Abort_IT
    HAL_DMA_Abort_IT
        0x08000480:    b570        p.      PUSH     {r4-r6,lr}
        0x08000482:    4604        .F      MOV      r4,r0
        0x08000484:    2500        .%      MOVS     r5,#0
        0x08000486:    f8940021    ..!.    LDRB     r0,[r4,#0x21]
        0x0800048a:    2802        .(      CMP      r0,#2
        0x0800048c:    d003        ..      BEQ      0x8000496 ; HAL_DMA_Abort_IT + 22
        0x0800048e:    2004        .       MOVS     r0,#4
        0x08000490:    63a0        .c      STR      r0,[r4,#0x38]
        0x08000492:    2501        .%      MOVS     r5,#1
        0x08000494:    e0c1        ..      B        0x800061a ; HAL_DMA_Abort_IT + 410
        0x08000496:    6820         h      LDR      r0,[r4,#0]
        0x08000498:    6800        .h      LDR      r0,[r0,#0]
        0x0800049a:    f020000e     ...    BIC      r0,r0,#0xe
        0x0800049e:    6821        !h      LDR      r1,[r4,#0]
        0x080004a0:    6008        .`      STR      r0,[r1,#0]
        0x080004a2:    6820         h      LDR      r0,[r4,#0]
        0x080004a4:    6800        .h      LDR      r0,[r0,#0]
        0x080004a6:    f0200001     ...    BIC      r0,r0,#1
        0x080004aa:    6821        !h      LDR      r1,[r4,#0]
        0x080004ac:    6008        .`      STR      r0,[r1,#0]
        0x080004ae:    495c        \I      LDR      r1,[pc,#368] ; [0x8000620] = 0x40020080
        0x080004b0:    6820         h      LDR      r0,[r4,#0]
        0x080004b2:    4288        .B      CMP      r0,r1
        0x080004b4:    d952        R.      BLS      0x800055c ; HAL_DMA_Abort_IT + 220
        0x080004b6:    495a        ZI      LDR      r1,[pc,#360] ; [0x8000620] = 0x40020080
        0x080004b8:    3978        x9      SUBS     r1,r1,#0x78
        0x080004ba:    6820         h      LDR      r0,[r4,#0]
        0x080004bc:    4288        .B      CMP      r0,r1
        0x080004be:    d101        ..      BNE      0x80004c4 ; HAL_DMA_Abort_IT + 68
        0x080004c0:    2001        .       MOVS     r0,#1
        0x080004c2:    e047        G.      B        0x8000554 ; HAL_DMA_Abort_IT + 212
        0x080004c4:    4956        VI      LDR      r1,[pc,#344] ; [0x8000620] = 0x40020080
        0x080004c6:    3964        d9      SUBS     r1,r1,#0x64
        0x080004c8:    6820         h      LDR      r0,[r4,#0]
        0x080004ca:    4288        .B      CMP      r0,r1
        0x080004cc:    d101        ..      BNE      0x80004d2 ; HAL_DMA_Abort_IT + 82
        0x080004ce:    2010        .       MOVS     r0,#0x10
        0x080004d0:    e040        @.      B        0x8000554 ; HAL_DMA_Abort_IT + 212
        0x080004d2:    4953        SI      LDR      r1,[pc,#332] ; [0x8000620] = 0x40020080
        0x080004d4:    3950        P9      SUBS     r1,r1,#0x50
        0x080004d6:    6820         h      LDR      r0,[r4,#0]
        0x080004d8:    4288        .B      CMP      r0,r1
        0x080004da:    d101        ..      BNE      0x80004e0 ; HAL_DMA_Abort_IT + 96
        0x080004dc:    1580        ..      ASRS     r0,r0,#22
        0x080004de:    e039        9.      B        0x8000554 ; HAL_DMA_Abort_IT + 212
        0x080004e0:    494f        OI      LDR      r1,[pc,#316] ; [0x8000620] = 0x40020080
        0x080004e2:    393c        <9      SUBS     r1,r1,#0x3c
        0x080004e4:    6820         h      LDR      r0,[r4,#0]
        0x080004e6:    4288        .B      CMP      r0,r1
        0x080004e8:    d101        ..      BNE      0x80004ee ; HAL_DMA_Abort_IT + 110
        0x080004ea:    1480        ..      ASRS     r0,r0,#18
        0x080004ec:    e032        2.      B        0x8000554 ; HAL_DMA_Abort_IT + 212
        0x080004ee:    494c        LI      LDR      r1,[pc,#304] ; [0x8000620] = 0x40020080
        0x080004f0:    3928        (9      SUBS     r1,r1,#0x28
        0x080004f2:    6820         h      LDR      r0,[r4,#0]
        0x080004f4:    4288        .B      CMP      r0,r1
        0x080004f6:    d102        ..      BNE      0x80004fe ; HAL_DMA_Abort_IT + 126
        0x080004f8:    f44f3080    O..0    MOV      r0,#0x10000
        0x080004fc:    e02a        *.      B        0x8000554 ; HAL_DMA_Abort_IT + 212
        0x080004fe:    4948        HI      LDR      r1,[pc,#288] ; [0x8000620] = 0x40020080
        0x08000500:    3914        .9      SUBS     r1,r1,#0x14
        0x08000502:    6820         h      LDR      r0,[r4,#0]
        0x08000504:    4288        .B      CMP      r0,r1
        0x08000506:    d102        ..      BNE      0x800050e ; HAL_DMA_Abort_IT + 142
        0x08000508:    f44f1080    O...    MOV      r0,#0x100000
        0x0800050c:    e022        ".      B        0x8000554 ; HAL_DMA_Abort_IT + 212
        0x0800050e:    4944        DI      LDR      r1,[pc,#272] ; [0x8000620] = 0x40020080
        0x08000510:    6820         h      LDR      r0,[r4,#0]
        0x08000512:    4288        .B      CMP      r0,r1
        0x08000514:    d101        ..      BNE      0x800051a ; HAL_DMA_Abort_IT + 154
        0x08000516:    0440        @.      LSLS     r0,r0,#17
        0x08000518:    e01c        ..      B        0x8000554 ; HAL_DMA_Abort_IT + 212
        0x0800051a:    4942        BI      LDR      r1,[pc,#264] ; [0x8000624] = 0x40020408
        0x0800051c:    6820         h      LDR      r0,[r4,#0]
        0x0800051e:    4288        .B      CMP      r0,r1
        0x08000520:    d101        ..      BNE      0x8000526 ; HAL_DMA_Abort_IT + 166
        0x08000522:    2001        .       MOVS     r0,#1
        0x08000524:    e016        ..      B        0x8000554 ; HAL_DMA_Abort_IT + 212
        0x08000526:    493f        ?I      LDR      r1,[pc,#252] ; [0x8000624] = 0x40020408
        0x08000528:    3114        .1      ADDS     r1,r1,#0x14
        0x0800052a:    6820         h      LDR      r0,[r4,#0]
        0x0800052c:    4288        .B      CMP      r0,r1
        0x0800052e:    d101        ..      BNE      0x8000534 ; HAL_DMA_Abort_IT + 180
        0x08000530:    2010        .       MOVS     r0,#0x10
        0x08000532:    e00f        ..      B        0x8000554 ; HAL_DMA_Abort_IT + 212
        0x08000534:    493b        ;I      LDR      r1,[pc,#236] ; [0x8000624] = 0x40020408
        0x08000536:    3128        (1      ADDS     r1,r1,#0x28
        0x08000538:    6820         h      LDR      r0,[r4,#0]
        0x0800053a:    4288        .B      CMP      r0,r1
        0x0800053c:    d101        ..      BNE      0x8000542 ; HAL_DMA_Abort_IT + 194
        0x0800053e:    1580        ..      ASRS     r0,r0,#22
        0x08000540:    e008        ..      B        0x8000554 ; HAL_DMA_Abort_IT + 212
        0x08000542:    4938        8I      LDR      r1,[pc,#224] ; [0x8000624] = 0x40020408
        0x08000544:    313c        <1      ADDS     r1,r1,#0x3c
        0x08000546:    6820         h      LDR      r0,[r4,#0]
        0x08000548:    4288        .B      CMP      r0,r1
        0x0800054a:    d101        ..      BNE      0x8000550 ; HAL_DMA_Abort_IT + 208
        0x0800054c:    1480        ..      ASRS     r0,r0,#18
        0x0800054e:    e001        ..      B        0x8000554 ; HAL_DMA_Abort_IT + 212
        0x08000550:    f44f3080    O..0    MOV      r0,#0x10000
        0x08000554:    4933        3I      LDR      r1,[pc,#204] ; [0x8000624] = 0x40020408
        0x08000556:    1f09        ..      SUBS     r1,r1,#4
        0x08000558:    6008        .`      STR      r0,[r1,#0]
        0x0800055a:    e051        Q.      B        0x8000600 ; HAL_DMA_Abort_IT + 384
        0x0800055c:    4930        0I      LDR      r1,[pc,#192] ; [0x8000620] = 0x40020080
        0x0800055e:    3978        x9      SUBS     r1,r1,#0x78
        0x08000560:    6820         h      LDR      r0,[r4,#0]
        0x08000562:    4288        .B      CMP      r0,r1
        0x08000564:    d101        ..      BNE      0x800056a ; HAL_DMA_Abort_IT + 234
        0x08000566:    2001        .       MOVS     r0,#1
        0x08000568:    e047        G.      B        0x80005fa ; HAL_DMA_Abort_IT + 378
        0x0800056a:    492d        -I      LDR      r1,[pc,#180] ; [0x8000620] = 0x40020080
        0x0800056c:    3964        d9      SUBS     r1,r1,#0x64
        0x0800056e:    6820         h      LDR      r0,[r4,#0]
        0x08000570:    4288        .B      CMP      r0,r1
        0x08000572:    d101        ..      BNE      0x8000578 ; HAL_DMA_Abort_IT + 248
        0x08000574:    2010        .       MOVS     r0,#0x10
        0x08000576:    e040        @.      B        0x80005fa ; HAL_DMA_Abort_IT + 378
        0x08000578:    4929        )I      LDR      r1,[pc,#164] ; [0x8000620] = 0x40020080
        0x0800057a:    3950        P9      SUBS     r1,r1,#0x50
        0x0800057c:    6820         h      LDR      r0,[r4,#0]
        0x0800057e:    4288        .B      CMP      r0,r1
        0x08000580:    d101        ..      BNE      0x8000586 ; HAL_DMA_Abort_IT + 262
        0x08000582:    1580        ..      ASRS     r0,r0,#22
        0x08000584:    e039        9.      B        0x80005fa ; HAL_DMA_Abort_IT + 378
        0x08000586:    4926        &I      LDR      r1,[pc,#152] ; [0x8000620] = 0x40020080
        0x08000588:    393c        <9      SUBS     r1,r1,#0x3c
        0x0800058a:    6820         h      LDR      r0,[r4,#0]
        0x0800058c:    4288        .B      CMP      r0,r1
        0x0800058e:    d101        ..      BNE      0x8000594 ; HAL_DMA_Abort_IT + 276
        0x08000590:    1480        ..      ASRS     r0,r0,#18
        0x08000592:    e032        2.      B        0x80005fa ; HAL_DMA_Abort_IT + 378
        0x08000594:    4922        "I      LDR      r1,[pc,#136] ; [0x8000620] = 0x40020080
        0x08000596:    3928        (9      SUBS     r1,r1,#0x28
        0x08000598:    6820         h      LDR      r0,[r4,#0]
        0x0800059a:    4288        .B      CMP      r0,r1
        0x0800059c:    d102        ..      BNE      0x80005a4 ; HAL_DMA_Abort_IT + 292
        0x0800059e:    f44f3080    O..0    MOV      r0,#0x10000
        0x080005a2:    e02a        *.      B        0x80005fa ; HAL_DMA_Abort_IT + 378
        0x080005a4:    491e        .I      LDR      r1,[pc,#120] ; [0x8000620] = 0x40020080
        0x080005a6:    3914        .9      SUBS     r1,r1,#0x14
        0x080005a8:    6820         h      LDR      r0,[r4,#0]
        0x080005aa:    4288        .B      CMP      r0,r1
        0x080005ac:    d102        ..      BNE      0x80005b4 ; HAL_DMA_Abort_IT + 308
        0x080005ae:    f44f1080    O...    MOV      r0,#0x100000
        0x080005b2:    e022        ".      B        0x80005fa ; HAL_DMA_Abort_IT + 378
        0x080005b4:    491a        .I      LDR      r1,[pc,#104] ; [0x8000620] = 0x40020080
        0x080005b6:    6820         h      LDR      r0,[r4,#0]
        0x080005b8:    4288        .B      CMP      r0,r1
        0x080005ba:    d101        ..      BNE      0x80005c0 ; HAL_DMA_Abort_IT + 320
        0x080005bc:    0440        @.      LSLS     r0,r0,#17
        0x080005be:    e01c        ..      B        0x80005fa ; HAL_DMA_Abort_IT + 378
        0x080005c0:    4918        .I      LDR      r1,[pc,#96] ; [0x8000624] = 0x40020408
        0x080005c2:    6820         h      LDR      r0,[r4,#0]
        0x080005c4:    4288        .B      CMP      r0,r1
        0x080005c6:    d101        ..      BNE      0x80005cc ; HAL_DMA_Abort_IT + 332
        0x080005c8:    2001        .       MOVS     r0,#1
        0x080005ca:    e016        ..      B        0x80005fa ; HAL_DMA_Abort_IT + 378
        0x080005cc:    4915        .I      LDR      r1,[pc,#84] ; [0x8000624] = 0x40020408
        0x080005ce:    3114        .1      ADDS     r1,r1,#0x14
        0x080005d0:    6820         h      LDR      r0,[r4,#0]
        0x080005d2:    4288        .B      CMP      r0,r1
        0x080005d4:    d101        ..      BNE      0x80005da ; HAL_DMA_Abort_IT + 346
        0x080005d6:    2010        .       MOVS     r0,#0x10
        0x080005d8:    e00f        ..      B        0x80005fa ; HAL_DMA_Abort_IT + 378
        0x080005da:    4912        .I      LDR      r1,[pc,#72] ; [0x8000624] = 0x40020408
        0x080005dc:    3128        (1      ADDS     r1,r1,#0x28
        0x080005de:    6820         h      LDR      r0,[r4,#0]
        0x080005e0:    4288        .B      CMP      r0,r1
        0x080005e2:    d101        ..      BNE      0x80005e8 ; HAL_DMA_Abort_IT + 360
        0x080005e4:    1580        ..      ASRS     r0,r0,#22
        0x080005e6:    e008        ..      B        0x80005fa ; HAL_DMA_Abort_IT + 378
        0x080005e8:    490e        .I      LDR      r1,[pc,#56] ; [0x8000624] = 0x40020408
        0x080005ea:    313c        <1      ADDS     r1,r1,#0x3c
        0x080005ec:    6820         h      LDR      r0,[r4,#0]
        0x080005ee:    4288        .B      CMP      r0,r1
        0x080005f0:    d101        ..      BNE      0x80005f6 ; HAL_DMA_Abort_IT + 374
        0x080005f2:    1480        ..      ASRS     r0,r0,#18
        0x080005f4:    e001        ..      B        0x80005fa ; HAL_DMA_Abort_IT + 378
        0x080005f6:    f44f3080    O..0    MOV      r0,#0x10000
        0x080005fa:    4909        .I      LDR      r1,[pc,#36] ; [0x8000620] = 0x40020080
        0x080005fc:    3980        .9      SUBS     r1,r1,#0x80
        0x080005fe:    6048        H`      STR      r0,[r1,#4]
        0x08000600:    2001        .       MOVS     r0,#1
        0x08000602:    f8840021    ..!.    STRB     r0,[r4,#0x21]
        0x08000606:    bf00        ..      NOP      
        0x08000608:    2000        .       MOVS     r0,#0
        0x0800060a:    f8840020    .. .    STRB     r0,[r4,#0x20]
        0x0800060e:    bf00        ..      NOP      
        0x08000610:    6b60        `k      LDR      r0,[r4,#0x34]
        0x08000612:    b110        ..      CBZ      r0,0x800061a ; HAL_DMA_Abort_IT + 410
        0x08000614:    4620         F      MOV      r0,r4
        0x08000616:    6b61        ak      LDR      r1,[r4,#0x34]
        0x08000618:    4788        .G      BLX      r1
        0x0800061a:    4628        (F      MOV      r0,r5
        0x0800061c:    bd70        p.      POP      {r4-r6,pc}
    $d
        0x0800061e:    0000        ..      DCW    0
        0x08000620:    40020080    ...@    DCD    1073873024
        0x08000624:    40020408    ...@    DCD    1073873928
    $t
    i.HAL_GPIO_EXTI_Callback
    HAL_GPIO_EXTI_Callback
        0x08000628:    b510        ..      PUSH     {r4,lr}
        0x0800062a:    4604        .F      MOV      r4,r0
        0x0800062c:    f5b44f80    ...O    CMP      r4,#0x4000
        0x08000630:    d107        ..      BNE      0x8000642 ; HAL_GPIO_EXTI_Callback + 26
        0x08000632:    f44f4180    O..A    MOV      r1,#0x4000
        0x08000636:    4808        .H      LDR      r0,[pc,#32] ; [0x8000658] = 0x40011800
        0x08000638:    f000f9c2    ....    BL       HAL_GPIO_ReadPin ; 0x80009c0
        0x0800063c:    4907        .I      LDR      r1,[pc,#28] ; [0x800065c] = 0x20000017
        0x0800063e:    7008        .p      STRB     r0,[r1,#0]
        0x08000640:    e009        ..      B        0x8000656 ; HAL_GPIO_EXTI_Callback + 46
        0x08000642:    f5b44f00    ...O    CMP      r4,#0x8000
        0x08000646:    d106        ..      BNE      0x8000656 ; HAL_GPIO_EXTI_Callback + 46
        0x08000648:    f44f4100    O..A    MOV      r1,#0x8000
        0x0800064c:    4802        .H      LDR      r0,[pc,#8] ; [0x8000658] = 0x40011800
        0x0800064e:    f000f9b7    ....    BL       HAL_GPIO_ReadPin ; 0x80009c0
        0x08000652:    4903        .I      LDR      r1,[pc,#12] ; [0x8000660] = 0x20000018
        0x08000654:    7008        .p      STRB     r0,[r1,#0]
        0x08000656:    bd10        ..      POP      {r4,pc}
    $d
        0x08000658:    40011800    ...@    DCD    1073813504
        0x0800065c:    20000017    ...     DCD    536870935
        0x08000660:    20000018    ...     DCD    536870936
    $t
    i.HAL_GPIO_EXTI_IRQHandler
    HAL_GPIO_EXTI_IRQHandler
        0x08000664:    b510        ..      PUSH     {r4,lr}
        0x08000666:    4604        .F      MOV      r4,r0
        0x08000668:    4804        .H      LDR      r0,[pc,#16] ; [0x800067c] = 0x40010414
        0x0800066a:    6800        .h      LDR      r0,[r0,#0]
        0x0800066c:    4020         @      ANDS     r0,r0,r4
        0x0800066e:    b120         .      CBZ      r0,0x800067a ; HAL_GPIO_EXTI_IRQHandler + 22
        0x08000670:    4802        .H      LDR      r0,[pc,#8] ; [0x800067c] = 0x40010414
        0x08000672:    6004        .`      STR      r4,[r0,#0]
        0x08000674:    4620         F      MOV      r0,r4
        0x08000676:    f7ffffd7    ....    BL       HAL_GPIO_EXTI_Callback ; 0x8000628
        0x0800067a:    bd10        ..      POP      {r4,pc}
    $d
        0x0800067c:    40010414    ...@    DCD    1073808404
    $t
    i.HAL_GPIO_Init
    HAL_GPIO_Init
        0x08000680:    e92d47f8    -..G    PUSH     {r3-r10,lr}
        0x08000684:    4602        .F      MOV      r2,r0
        0x08000686:    2300        .#      MOVS     r3,#0
        0x08000688:    469c        .F      MOV      r12,r3
        0x0800068a:    e17b        {.      B        0x8000984 ; HAL_GPIO_Init + 772
        0x0800068c:    f04f0801    O...    MOV      r8,#1
        0x08000690:    fa08f403    ....    LSL      r4,r8,r3
        0x08000694:    f8d18000    ....    LDR      r8,[r1,#0]
        0x08000698:    ea080004    ....    AND      r0,r8,r4
        0x0800069c:    42a0        .B      CMP      r0,r4
        0x0800069e:    d17d        }.      BNE      0x800079c ; HAL_GPIO_Init + 284
        0x080006a0:    f8dfa2f4    ....    LDR      r10,[pc,#756] ; [0x8000998] = 0x10110000
        0x080006a4:    f8d18004    ....    LDR      r8,[r1,#4]
        0x080006a8:    eba8090a    ....    SUB      r9,r8,r10
        0x080006ac:    45d0        .E      CMP      r8,r10
        0x080006ae:    d03a        :.      BEQ      0x8000726 ; HAL_GPIO_Init + 166
        0x080006b0:    dc14        ..      BGT      0x80006dc ; HAL_GPIO_Init + 92
        0x080006b2:    f1b80f03    ....    CMP      r8,#3
        0x080006b6:    d050        P.      BEQ      0x800075a ; HAL_GPIO_Init + 218
        0x080006b8:    dc09        ..      BGT      0x80006ce ; HAL_GPIO_Init + 78
        0x080006ba:    f1b80f00    ....    CMP      r8,#0
        0x080006be:    d031        1.      BEQ      0x8000724 ; HAL_GPIO_Init + 164
        0x080006c0:    f1b80f01    ....    CMP      r8,#1
        0x080006c4:    d01c        ..      BEQ      0x8000700 ; HAL_GPIO_Init + 128
        0x080006c6:    f1b80f02    ....    CMP      r8,#2
        0x080006ca:    d149        I.      BNE      0x8000760 ; HAL_GPIO_Init + 224
        0x080006cc:    e020         .      B        0x8000710 ; HAL_GPIO_Init + 144
        0x080006ce:    f1b80f11    ....    CMP      r8,#0x11
        0x080006d2:    d018        ..      BEQ      0x8000706 ; HAL_GPIO_Init + 134
        0x080006d4:    f1b80f12    ....    CMP      r8,#0x12
        0x080006d8:    d142        B.      BNE      0x8000760 ; HAL_GPIO_Init + 224
        0x080006da:    e01e        ..      B        0x800071a ; HAL_GPIO_Init + 154
        0x080006dc:    f5b91f88    ....    CMP      r9,#0x110000
        0x080006e0:    d025        %.      BEQ      0x800072e ; HAL_GPIO_Init + 174
        0x080006e2:    dc06        ..      BGT      0x80006f2 ; HAL_GPIO_Init + 114
        0x080006e4:    f5b93f80    ...?    CMP      r9,#0x10000
        0x080006e8:    d020         .      BEQ      0x800072c ; HAL_GPIO_Init + 172
        0x080006ea:    f5b91f80    ....    CMP      r9,#0x100000
        0x080006ee:    d137        7.      BNE      0x8000760 ; HAL_GPIO_Init + 224
        0x080006f0:    e01a        ..      B        0x8000728 ; HAL_GPIO_Init + 168
        0x080006f2:    f5b91f00    ....    CMP      r9,#0x200000
        0x080006f6:    d018        ..      BEQ      0x800072a ; HAL_GPIO_Init + 170
        0x080006f8:    f5b91f04    ....    CMP      r9,#0x210000
        0x080006fc:    d130        0.      BNE      0x8000760 ; HAL_GPIO_Init + 224
        0x080006fe:    e017        ..      B        0x8000730 ; HAL_GPIO_Init + 176
        0x08000700:    f8d1c00c    ....    LDR      r12,[r1,#0xc]
        0x08000704:    e02d        -.      B        0x8000762 ; HAL_GPIO_Init + 226
        0x08000706:    f8d1800c    ....    LDR      r8,[r1,#0xc]
        0x0800070a:    f1080c04    ....    ADD      r12,r8,#4
        0x0800070e:    e028        (.      B        0x8000762 ; HAL_GPIO_Init + 226
        0x08000710:    f8d1800c    ....    LDR      r8,[r1,#0xc]
        0x08000714:    f1080c08    ....    ADD      r12,r8,#8
        0x08000718:    e023        #.      B        0x8000762 ; HAL_GPIO_Init + 226
        0x0800071a:    f8d1800c    ....    LDR      r8,[r1,#0xc]
        0x0800071e:    f1080c0c    ....    ADD      r12,r8,#0xc
        0x08000722:    e01e        ..      B        0x8000762 ; HAL_GPIO_Init + 226
        0x08000724:    bf00        ..      NOP      
        0x08000726:    bf00        ..      NOP      
        0x08000728:    bf00        ..      NOP      
        0x0800072a:    bf00        ..      NOP      
        0x0800072c:    bf00        ..      NOP      
        0x0800072e:    bf00        ..      NOP      
        0x08000730:    f8d18008    ....    LDR      r8,[r1,#8]
        0x08000734:    f1b80f00    ....    CMP      r8,#0
        0x08000738:    d102        ..      BNE      0x8000740 ; HAL_GPIO_Init + 192
        0x0800073a:    f04f0c04    O...    MOV      r12,#4
        0x0800073e:    e00b        ..      B        0x8000758 ; HAL_GPIO_Init + 216
        0x08000740:    f8d18008    ....    LDR      r8,[r1,#8]
        0x08000744:    f1b80f01    ....    CMP      r8,#1
        0x08000748:    d103        ..      BNE      0x8000752 ; HAL_GPIO_Init + 210
        0x0800074a:    f04f0c08    O...    MOV      r12,#8
        0x0800074e:    6114        .a      STR      r4,[r2,#0x10]
        0x08000750:    e002        ..      B        0x8000758 ; HAL_GPIO_Init + 216
        0x08000752:    f04f0c08    O...    MOV      r12,#8
        0x08000756:    6154        Ta      STR      r4,[r2,#0x14]
        0x08000758:    e003        ..      B        0x8000762 ; HAL_GPIO_Init + 226
        0x0800075a:    f04f0c00    O...    MOV      r12,#0
        0x0800075e:    e000        ..      B        0x8000762 ; HAL_GPIO_Init + 226
        0x08000760:    bf00        ..      NOP      
        0x08000762:    bf00        ..      NOP      
        0x08000764:    28ff        .(      CMP      r0,#0xff
        0x08000766:    d801        ..      BHI      0x800076c ; HAL_GPIO_Init + 236
        0x08000768:    4690        .F      MOV      r8,r2
        0x0800076a:    e001        ..      B        0x8000770 ; HAL_GPIO_Init + 240
        0x0800076c:    f1020804    ....    ADD      r8,r2,#4
        0x08000770:    4646        FF      MOV      r6,r8
        0x08000772:    28ff        .(      CMP      r0,#0xff
        0x08000774:    d802        ..      BHI      0x800077c ; HAL_GPIO_Init + 252
        0x08000776:    ea4f0883    O...    LSL      r8,r3,#2
        0x0800077a:    e003        ..      B        0x8000784 ; HAL_GPIO_Init + 260
        0x0800077c:    f1a30808    ....    SUB      r8,r3,#8
        0x08000780:    ea4f0888    O...    LSL      r8,r8,#2
        0x08000784:    4647        GF      MOV      r7,r8
        0x08000786:    f8d68000    ....    LDR      r8,[r6,#0]
        0x0800078a:    f04f090f    O...    MOV      r9,#0xf
        0x0800078e:    fa09f907    ....    LSL      r9,r9,r7
        0x08000792:    ea280809    (...    BIC      r8,r8,r9
        0x08000796:    fa0cf907    ....    LSL      r9,r12,r7
        0x0800079a:    e000        ..      B        0x800079e ; HAL_GPIO_Init + 286
        0x0800079c:    e07a        z.      B        0x8000894 ; HAL_GPIO_Init + 532
        0x0800079e:    ea480809    H...    ORR      r8,r8,r9
        0x080007a2:    f8c68000    ....    STR      r8,[r6,#0]
        0x080007a6:    f8d18004    ....    LDR      r8,[r1,#4]
        0x080007aa:    f0085880    ...X    AND      r8,r8,#0x10000000
        0x080007ae:    f1b85f80    ..._    CMP      r8,#0x10000000
        0x080007b2:    d16f        o.      BNE      0x8000894 ; HAL_GPIO_Init + 532
        0x080007b4:    bf00        ..      NOP      
        0x080007b6:    f8df81e4    ....    LDR      r8,[pc,#484] ; [0x800099c] = 0x40021000
        0x080007ba:    f8d88018    ....    LDR      r8,[r8,#0x18]
        0x080007be:    f0480801    H...    ORR      r8,r8,#1
        0x080007c2:    f8df91d8    ....    LDR      r9,[pc,#472] ; [0x800099c] = 0x40021000
        0x080007c6:    f8c98018    ....    STR      r8,[r9,#0x18]
        0x080007ca:    46c8        .F      MOV      r8,r9
        0x080007cc:    f8d88018    ....    LDR      r8,[r8,#0x18]
        0x080007d0:    f0080801    ....    AND      r8,r8,#1
        0x080007d4:    f8cd8000    ....    STR      r8,[sp,#0]
        0x080007d8:    bf00        ..      NOP      
        0x080007da:    bf00        ..      NOP      
        0x080007dc:    ea4f38b9    O..8    ROR      r8,r9,#14
        0x080007e0:    ea4f0993    O...    LSR      r9,r3,#2
        0x080007e4:    f8585029    X.)P    LDR      r5,[r8,r9,LSL #2]
        0x080007e8:    ea4f7883    O..x    LSL      r8,r3,#30
        0x080007ec:    ea4f7918    O..y    LSR      r9,r8,#28
        0x080007f0:    f04f080f    O...    MOV      r8,#0xf
        0x080007f4:    fa08f809    ....    LSL      r8,r8,r9
        0x080007f8:    ea250508    %...    BIC      r5,r5,r8
        0x080007fc:    f8df81a0    ....    LDR      r8,[pc,#416] ; [0x80009a0] = 0x40010800
        0x08000800:    4542        BE      CMP      r2,r8
        0x08000802:    d102        ..      BNE      0x800080a ; HAL_GPIO_Init + 394
        0x08000804:    f04f0800    O...    MOV      r8,#0
        0x08000808:    e024        $.      B        0x8000854 ; HAL_GPIO_Init + 468
        0x0800080a:    f8df8198    ....    LDR      r8,[pc,#408] ; [0x80009a4] = 0x40010c00
        0x0800080e:    4542        BE      CMP      r2,r8
        0x08000810:    d102        ..      BNE      0x8000818 ; HAL_GPIO_Init + 408
        0x08000812:    f04f0801    O...    MOV      r8,#1
        0x08000816:    e01d        ..      B        0x8000854 ; HAL_GPIO_Init + 468
        0x08000818:    f8df818c    ....    LDR      r8,[pc,#396] ; [0x80009a8] = 0x40011000
        0x0800081c:    4542        BE      CMP      r2,r8
        0x0800081e:    d102        ..      BNE      0x8000826 ; HAL_GPIO_Init + 422
        0x08000820:    f04f0802    O...    MOV      r8,#2
        0x08000824:    e016        ..      B        0x8000854 ; HAL_GPIO_Init + 468
        0x08000826:    f8df8184    ....    LDR      r8,[pc,#388] ; [0x80009ac] = 0x40011400
        0x0800082a:    4542        BE      CMP      r2,r8
        0x0800082c:    d102        ..      BNE      0x8000834 ; HAL_GPIO_Init + 436
        0x0800082e:    f04f0803    O...    MOV      r8,#3
        0x08000832:    e00f        ..      B        0x8000854 ; HAL_GPIO_Init + 468
        0x08000834:    f8df8178    ..x.    LDR      r8,[pc,#376] ; [0x80009b0] = 0x40011800
        0x08000838:    4542        BE      CMP      r2,r8
        0x0800083a:    d102        ..      BNE      0x8000842 ; HAL_GPIO_Init + 450
        0x0800083c:    f04f0804    O...    MOV      r8,#4
        0x08000840:    e008        ..      B        0x8000854 ; HAL_GPIO_Init + 468
        0x08000842:    f8df8170    ..p.    LDR      r8,[pc,#368] ; [0x80009b4] = 0x40011c00
        0x08000846:    4542        BE      CMP      r2,r8
        0x08000848:    d102        ..      BNE      0x8000850 ; HAL_GPIO_Init + 464
        0x0800084a:    f04f0805    O...    MOV      r8,#5
        0x0800084e:    e001        ..      B        0x8000854 ; HAL_GPIO_Init + 468
        0x08000850:    f04f0806    O...    MOV      r8,#6
        0x08000854:    ea4f7983    O..y    LSL      r9,r3,#30
        0x08000858:    ea4f7919    O..y    LSR      r9,r9,#28
        0x0800085c:    fa08f809    ....    LSL      r8,r8,r9
        0x08000860:    ea480505    H...    ORR      r5,r8,r5
        0x08000864:    f8df8150    ..P.    LDR      r8,[pc,#336] ; [0x80009b8] = 0x40010008
        0x08000868:    ea4f0993    O...    LSR      r9,r3,#2
        0x0800086c:    f8485029    H.)P    STR      r5,[r8,r9,LSL #2]
        0x08000870:    f8d18004    ....    LDR      r8,[r1,#4]
        0x08000874:    f4083880    ...8    AND      r8,r8,#0x10000
        0x08000878:    f5b83f80    ...?    CMP      r8,#0x10000
        0x0800087c:    d10b        ..      BNE      0x8000896 ; HAL_GPIO_Init + 534
        0x0800087e:    f8df813c    ..<.    LDR      r8,[pc,#316] ; [0x80009bc] = 0x40010400
        0x08000882:    f8d88000    ....    LDR      r8,[r8,#0]
        0x08000886:    ea480800    H...    ORR      r8,r8,r0
        0x0800088a:    f8df9130    ..0.    LDR      r9,[pc,#304] ; [0x80009bc] = 0x40010400
        0x0800088e:    f8c98000    ....    STR      r8,[r9,#0]
        0x08000892:    e00a        ..      B        0x80008aa ; HAL_GPIO_Init + 554
        0x08000894:    e075        u.      B        0x8000982 ; HAL_GPIO_Init + 770
        0x08000896:    f8df8124    ..$.    LDR      r8,[pc,#292] ; [0x80009bc] = 0x40010400
        0x0800089a:    f8d88000    ....    LDR      r8,[r8,#0]
        0x0800089e:    ea280800    (...    BIC      r8,r8,r0
        0x080008a2:    f8df9118    ....    LDR      r9,[pc,#280] ; [0x80009bc] = 0x40010400
        0x080008a6:    f8c98000    ....    STR      r8,[r9,#0]
        0x080008aa:    f8d18004    ....    LDR      r8,[r1,#4]
        0x080008ae:    f4083800    ...8    AND      r8,r8,#0x20000
        0x080008b2:    f5b83f00    ...?    CMP      r8,#0x20000
        0x080008b6:    d10e        ..      BNE      0x80008d6 ; HAL_GPIO_Init + 598
        0x080008b8:    f8df8100    ....    LDR      r8,[pc,#256] ; [0x80009bc] = 0x40010400
        0x080008bc:    f1080804    ....    ADD      r8,r8,#4
        0x080008c0:    f8d88000    ....    LDR      r8,[r8,#0]
        0x080008c4:    ea480800    H...    ORR      r8,r8,r0
        0x080008c8:    f8df90f0    ....    LDR      r9,[pc,#240] ; [0x80009bc] = 0x40010400
        0x080008cc:    f1090904    ....    ADD      r9,r9,#4
        0x080008d0:    f8c98000    ....    STR      r8,[r9,#0]
        0x080008d4:    e00d        ..      B        0x80008f2 ; HAL_GPIO_Init + 626
        0x080008d6:    f8df80e4    ....    LDR      r8,[pc,#228] ; [0x80009bc] = 0x40010400
        0x080008da:    f1080804    ....    ADD      r8,r8,#4
        0x080008de:    f8d88000    ....    LDR      r8,[r8,#0]
        0x080008e2:    ea280800    (...    BIC      r8,r8,r0
        0x080008e6:    f8df90d4    ....    LDR      r9,[pc,#212] ; [0x80009bc] = 0x40010400
        0x080008ea:    f1090904    ....    ADD      r9,r9,#4
        0x080008ee:    f8c98000    ....    STR      r8,[r9,#0]
        0x080008f2:    f8d18004    ....    LDR      r8,[r1,#4]
        0x080008f6:    f4081880    ....    AND      r8,r8,#0x100000
        0x080008fa:    f5b81f80    ....    CMP      r8,#0x100000
        0x080008fe:    d10e        ..      BNE      0x800091e ; HAL_GPIO_Init + 670
        0x08000900:    f8df80b8    ....    LDR      r8,[pc,#184] ; [0x80009bc] = 0x40010400
        0x08000904:    f1080808    ....    ADD      r8,r8,#8
        0x08000908:    f8d88000    ....    LDR      r8,[r8,#0]
        0x0800090c:    ea480800    H...    ORR      r8,r8,r0
        0x08000910:    f8df90a8    ....    LDR      r9,[pc,#168] ; [0x80009bc] = 0x40010400
        0x08000914:    f1090908    ....    ADD      r9,r9,#8
        0x08000918:    f8c98000    ....    STR      r8,[r9,#0]
        0x0800091c:    e00d        ..      B        0x800093a ; HAL_GPIO_Init + 698
        0x0800091e:    f8df809c    ....    LDR      r8,[pc,#156] ; [0x80009bc] = 0x40010400
        0x08000922:    f1080808    ....    ADD      r8,r8,#8
        0x08000926:    f8d88000    ....    LDR      r8,[r8,#0]
        0x0800092a:    ea280800    (...    BIC      r8,r8,r0
        0x0800092e:    f8df908c    ....    LDR      r9,[pc,#140] ; [0x80009bc] = 0x40010400
        0x08000932:    f1090908    ....    ADD      r9,r9,#8
        0x08000936:    f8c98000    ....    STR      r8,[r9,#0]
        0x0800093a:    f8d18004    ....    LDR      r8,[r1,#4]
        0x0800093e:    f4081800    ....    AND      r8,r8,#0x200000
        0x08000942:    f5b81f00    ....    CMP      r8,#0x200000
        0x08000946:    d10e        ..      BNE      0x8000966 ; HAL_GPIO_Init + 742
        0x08000948:    f8df8070    ..p.    LDR      r8,[pc,#112] ; [0x80009bc] = 0x40010400
        0x0800094c:    f108080c    ....    ADD      r8,r8,#0xc
        0x08000950:    f8d88000    ....    LDR      r8,[r8,#0]
        0x08000954:    ea480800    H...    ORR      r8,r8,r0
        0x08000958:    f8df9060    ..`.    LDR      r9,[pc,#96] ; [0x80009bc] = 0x40010400
        0x0800095c:    f109090c    ....    ADD      r9,r9,#0xc
        0x08000960:    f8c98000    ....    STR      r8,[r9,#0]
        0x08000964:    e00d        ..      B        0x8000982 ; HAL_GPIO_Init + 770
        0x08000966:    f8df8054    ..T.    LDR      r8,[pc,#84] ; [0x80009bc] = 0x40010400
        0x0800096a:    f108080c    ....    ADD      r8,r8,#0xc
        0x0800096e:    f8d88000    ....    LDR      r8,[r8,#0]
        0x08000972:    ea280800    (...    BIC      r8,r8,r0
        0x08000976:    f8df9044    ..D.    LDR      r9,[pc,#68] ; [0x80009bc] = 0x40010400
        0x0800097a:    f109090c    ....    ADD      r9,r9,#0xc
        0x0800097e:    f8c98000    ....    STR      r8,[r9,#0]
        0x08000982:    1c5b        [.      ADDS     r3,r3,#1
        0x08000984:    f8d18000    ....    LDR      r8,[r1,#0]
        0x08000988:    fa28f803    (...    LSR      r8,r8,r3
        0x0800098c:    f1b80f00    ....    CMP      r8,#0
        0x08000990:    f47fae7c    ..|.    BNE      0x800068c ; HAL_GPIO_Init + 12
        0x08000994:    e8bd87f8    ....    POP      {r3-r10,pc}
    $d
        0x08000998:    10110000    ....    DCD    269549568
        0x0800099c:    40021000    ...@    DCD    1073876992
        0x080009a0:    40010800    ...@    DCD    1073809408
        0x080009a4:    40010c00    ...@    DCD    1073810432
        0x080009a8:    40011000    ...@    DCD    1073811456
        0x080009ac:    40011400    ...@    DCD    1073812480
        0x080009b0:    40011800    ...@    DCD    1073813504
        0x080009b4:    40011c00    ...@    DCD    1073814528
        0x080009b8:    40010008    ...@    DCD    1073807368
        0x080009bc:    40010400    ...@    DCD    1073808384
    $t
    i.HAL_GPIO_ReadPin
    HAL_GPIO_ReadPin
        0x080009c0:    4602        .F      MOV      r2,r0
        0x080009c2:    6893        .h      LDR      r3,[r2,#8]
        0x080009c4:    400b        .@      ANDS     r3,r3,r1
        0x080009c6:    b10b        ..      CBZ      r3,0x80009cc ; HAL_GPIO_ReadPin + 12
        0x080009c8:    2001        .       MOVS     r0,#1
        0x080009ca:    e000        ..      B        0x80009ce ; HAL_GPIO_ReadPin + 14
        0x080009cc:    2000        .       MOVS     r0,#0
        0x080009ce:    4770        pG      BX       lr
    i.HAL_GPIO_WritePin
    HAL_GPIO_WritePin
        0x080009d0:    b10a        ..      CBZ      r2,0x80009d6 ; HAL_GPIO_WritePin + 6
        0x080009d2:    6101        .a      STR      r1,[r0,#0x10]
        0x080009d4:    e001        ..      B        0x80009da ; HAL_GPIO_WritePin + 10
        0x080009d6:    040b        ..      LSLS     r3,r1,#16
        0x080009d8:    6103        .a      STR      r3,[r0,#0x10]
        0x080009da:    4770        pG      BX       lr
    i.HAL_GetTick
    HAL_GetTick
        0x080009dc:    4801        .H      LDR      r0,[pc,#4] ; [0x80009e4] = 0x20000004
        0x080009de:    6800        .h      LDR      r0,[r0,#0]
        0x080009e0:    4770        pG      BX       lr
    $d
        0x080009e2:    0000        ..      DCW    0
        0x080009e4:    20000004    ...     DCD    536870916
    $t
    i.HAL_IncTick
    HAL_IncTick
        0x080009e8:    4803        .H      LDR      r0,[pc,#12] ; [0x80009f8] = 0x20000004
        0x080009ea:    6800        .h      LDR      r0,[r0,#0]
        0x080009ec:    4903        .I      LDR      r1,[pc,#12] ; [0x80009fc] = 0x2000000c
        0x080009ee:    7809        .x      LDRB     r1,[r1,#0]
        0x080009f0:    4408        .D      ADD      r0,r0,r1
        0x080009f2:    4901        .I      LDR      r1,[pc,#4] ; [0x80009f8] = 0x20000004
        0x080009f4:    6008        .`      STR      r0,[r1,#0]
        0x080009f6:    4770        pG      BX       lr
    $d
        0x080009f8:    20000004    ...     DCD    536870916
        0x080009fc:    2000000c    ...     DCD    536870924
    $t
    i.HAL_Init
    HAL_Init
        0x08000a00:    b510        ..      PUSH     {r4,lr}
        0x08000a02:    4808        .H      LDR      r0,[pc,#32] ; [0x8000a24] = 0x40022000
        0x08000a04:    6800        .h      LDR      r0,[r0,#0]
        0x08000a06:    f0400010    @...    ORR      r0,r0,#0x10
        0x08000a0a:    4906        .I      LDR      r1,[pc,#24] ; [0x8000a24] = 0x40022000
        0x08000a0c:    6008        .`      STR      r0,[r1,#0]
        0x08000a0e:    2003        .       MOVS     r0,#3
        0x08000a10:    f000f8cc    ....    BL       HAL_NVIC_SetPriorityGrouping ; 0x8000bac
        0x08000a14:    200f        .       MOVS     r0,#0xf
        0x08000a16:    f000f807    ....    BL       HAL_InitTick ; 0x8000a28
        0x08000a1a:    f000f849    ..I.    BL       HAL_MspInit ; 0x8000ab0
        0x08000a1e:    2000        .       MOVS     r0,#0
        0x08000a20:    bd10        ..      POP      {r4,pc}
    $d
        0x08000a22:    0000        ..      DCW    0
        0x08000a24:    40022000    . .@    DCD    1073881088
    $t
    i.HAL_InitTick
    HAL_InitTick
        0x08000a28:    b570        p.      PUSH     {r4-r6,lr}
        0x08000a2a:    b088        ..      SUB      sp,sp,#0x20
        0x08000a2c:    4604        .F      MOV      r4,r0
        0x08000a2e:    2500        .%      MOVS     r5,#0
        0x08000a30:    2600        .&      MOVS     r6,#0
        0x08000a32:    2200        ."      MOVS     r2,#0
        0x08000a34:    4621        !F      MOV      r1,r4
        0x08000a36:    202c        ,       MOVS     r0,#0x2c
        0x08000a38:    f000f87a    ..z.    BL       HAL_NVIC_SetPriority ; 0x8000b30
        0x08000a3c:    202c        ,       MOVS     r0,#0x2c
        0x08000a3e:    f000f867    ..g.    BL       HAL_NVIC_EnableIRQ ; 0x8000b10
        0x08000a42:    bf00        ..      NOP      
        0x08000a44:    4816        .H      LDR      r0,[pc,#88] ; [0x8000aa0] = 0x40021000
        0x08000a46:    6980        .i      LDR      r0,[r0,#0x18]
        0x08000a48:    f4405000    @..P    ORR      r0,r0,#0x2000
        0x08000a4c:    4914        .I      LDR      r1,[pc,#80] ; [0x8000aa0] = 0x40021000
        0x08000a4e:    6188        .a      STR      r0,[r1,#0x18]
        0x08000a50:    4608        .F      MOV      r0,r1
        0x08000a52:    6980        .i      LDR      r0,[r0,#0x18]
        0x08000a54:    f4005000    ...P    AND      r0,r0,#0x2000
        0x08000a58:    9001        ..      STR      r0,[sp,#4]
        0x08000a5a:    bf00        ..      NOP      
        0x08000a5c:    bf00        ..      NOP      
        0x08000a5e:    a902        ..      ADD      r1,sp,#8
        0x08000a60:    a803        ..      ADD      r0,sp,#0xc
        0x08000a62:    f000f97d    ..}.    BL       HAL_RCC_GetClockConfig ; 0x8000d60
        0x08000a66:    f000f9b3    ....    BL       HAL_RCC_GetPCLK2Freq ; 0x8000dd0
        0x08000a6a:    4605        .F      MOV      r5,r0
        0x08000a6c:    480d        .H      LDR      r0,[pc,#52] ; [0x8000aa4] = 0xf4240
        0x08000a6e:    fbb5f0f0    ....    UDIV     r0,r5,r0
        0x08000a72:    1e46        F.      SUBS     r6,r0,#1
        0x08000a74:    480c        .H      LDR      r0,[pc,#48] ; [0x8000aa8] = 0x40013400
        0x08000a76:    490d        .I      LDR      r1,[pc,#52] ; [0x8000aac] = 0x20000528
        0x08000a78:    6008        .`      STR      r0,[r1,#0]
        0x08000a7a:    f24031e7    @..1    MOV      r1,#0x3e7
        0x08000a7e:    480b        .H      LDR      r0,[pc,#44] ; [0x8000aac] = 0x20000528
        0x08000a80:    60c1        .`      STR      r1,[r0,#0xc]
        0x08000a82:    6046        F`      STR      r6,[r0,#4]
        0x08000a84:    2100        .!      MOVS     r1,#0
        0x08000a86:    6101        .a      STR      r1,[r0,#0x10]
        0x08000a88:    6081        .`      STR      r1,[r0,#8]
        0x08000a8a:    f000fc2f    ../.    BL       HAL_TIM_Base_Init ; 0x80012ec
        0x08000a8e:    b920         .      CBNZ     r0,0x8000a9a ; HAL_InitTick + 114
        0x08000a90:    4806        .H      LDR      r0,[pc,#24] ; [0x8000aac] = 0x20000528
        0x08000a92:    f000fc5f    .._.    BL       HAL_TIM_Base_Start_IT ; 0x8001354
        0x08000a96:    b008        ..      ADD      sp,sp,#0x20
        0x08000a98:    bd70        p.      POP      {r4-r6,pc}
        0x08000a9a:    2001        .       MOVS     r0,#1
        0x08000a9c:    e7fb        ..      B        0x8000a96 ; HAL_InitTick + 110
    $d
        0x08000a9e:    0000        ..      DCW    0
        0x08000aa0:    40021000    ...@    DCD    1073876992
        0x08000aa4:    000f4240    @B..    DCD    1000000
        0x08000aa8:    40013400    .4.@    DCD    1073820672
        0x08000aac:    20000528    (..     DCD    536872232
    $t
    i.HAL_MspInit
    HAL_MspInit
        0x08000ab0:    b508        ..      PUSH     {r3,lr}
        0x08000ab2:    bf00        ..      NOP      
        0x08000ab4:    4814        .H      LDR      r0,[pc,#80] ; [0x8000b08] = 0x40021000
        0x08000ab6:    6980        .i      LDR      r0,[r0,#0x18]
        0x08000ab8:    f0400001    @...    ORR      r0,r0,#1
        0x08000abc:    4912        .I      LDR      r1,[pc,#72] ; [0x8000b08] = 0x40021000
        0x08000abe:    6188        .a      STR      r0,[r1,#0x18]
        0x08000ac0:    4608        .F      MOV      r0,r1
        0x08000ac2:    6980        .i      LDR      r0,[r0,#0x18]
        0x08000ac4:    f0000001    ....    AND      r0,r0,#1
        0x08000ac8:    9000        ..      STR      r0,[sp,#0]
        0x08000aca:    bf00        ..      NOP      
        0x08000acc:    bf00        ..      NOP      
        0x08000ace:    bf00        ..      NOP      
        0x08000ad0:    4608        .F      MOV      r0,r1
        0x08000ad2:    69c0        .i      LDR      r0,[r0,#0x1c]
        0x08000ad4:    f0405080    @..P    ORR      r0,r0,#0x10000000
        0x08000ad8:    61c8        .a      STR      r0,[r1,#0x1c]
        0x08000ada:    4608        .F      MOV      r0,r1
        0x08000adc:    69c0        .i      LDR      r0,[r0,#0x1c]
        0x08000ade:    f0005080    ...P    AND      r0,r0,#0x10000000
        0x08000ae2:    9000        ..      STR      r0,[sp,#0]
        0x08000ae4:    bf00        ..      NOP      
        0x08000ae6:    bf00        ..      NOP      
        0x08000ae8:    2200        ."      MOVS     r2,#0
        0x08000aea:    210f        .!      MOVS     r1,#0xf
        0x08000aec:    1e90        ..      SUBS     r0,r2,#2
        0x08000aee:    f000f81f    ....    BL       HAL_NVIC_SetPriority ; 0x8000b30
        0x08000af2:    bf00        ..      NOP      
        0x08000af4:    4905        .I      LDR      r1,[pc,#20] ; [0x8000b0c] = 0x40010000
        0x08000af6:    6848        Hh      LDR      r0,[r1,#4]
        0x08000af8:    f02060e0     ..`    BIC      r0,r0,#0x7000000
        0x08000afc:    f0407000    @..p    ORR      r0,r0,#0x2000000
        0x08000b00:    6048        H`      STR      r0,[r1,#4]
        0x08000b02:    bf00        ..      NOP      
        0x08000b04:    bd08        ..      POP      {r3,pc}
    $d
        0x08000b06:    0000        ..      DCW    0
        0x08000b08:    40021000    ...@    DCD    1073876992
        0x08000b0c:    40010000    ...@    DCD    1073807360
    $t
    i.HAL_NVIC_EnableIRQ
    HAL_NVIC_EnableIRQ
        0x08000b10:    4601        .F      MOV      r1,r0
        0x08000b12:    4608        .F      MOV      r0,r1
        0x08000b14:    2800        .(      CMP      r0,#0
        0x08000b16:    db09        ..      BLT      0x8000b2c ; HAL_NVIC_EnableIRQ + 28
        0x08000b18:    f000031f    ....    AND      r3,r0,#0x1f
        0x08000b1c:    2201        ."      MOVS     r2,#1
        0x08000b1e:    409a        .@      LSLS     r2,r2,r3
        0x08000b20:    0943        C.      LSRS     r3,r0,#5
        0x08000b22:    009b        ..      LSLS     r3,r3,#2
        0x08000b24:    f10323e0    ...#    ADD      r3,r3,#0xe000e000
        0x08000b28:    f8c32100    ...!    STR      r2,[r3,#0x100]
        0x08000b2c:    bf00        ..      NOP      
        0x08000b2e:    4770        pG      BX       lr
    i.HAL_NVIC_SetPriority
    HAL_NVIC_SetPriority
        0x08000b30:    e92d5ff0    -.._    PUSH     {r4-r12,lr}
        0x08000b34:    4680        .F      MOV      r8,r0
        0x08000b36:    460d        .F      MOV      r5,r1
        0x08000b38:    4616        .F      MOV      r6,r2
        0x08000b3a:    2700        .'      MOVS     r7,#0
        0x08000b3c:    f001fabc    ....    BL       __NVIC_GetPriorityGrouping ; 0x80020b8
        0x08000b40:    4607        .F      MOV      r7,r0
        0x08000b42:    4639        9F      MOV      r1,r7
        0x08000b44:    462a        *F      MOV      r2,r5
        0x08000b46:    4633        3F      MOV      r3,r6
        0x08000b48:    f0010007    ....    AND      r0,r1,#7
        0x08000b4c:    f1c00a07    ....    RSB      r10,r0,#7
        0x08000b50:    f1ba0f04    ....    CMP      r10,#4
        0x08000b54:    d902        ..      BLS      0x8000b5c ; HAL_NVIC_SetPriority + 44
        0x08000b56:    f04f0a04    O...    MOV      r10,#4
        0x08000b5a:    e001        ..      B        0x8000b60 ; HAL_NVIC_SetPriority + 48
        0x08000b5c:    f1c00a07    ....    RSB      r10,r0,#7
        0x08000b60:    46d1        .F      MOV      r9,r10
        0x08000b62:    f1000a04    ....    ADD      r10,r0,#4
        0x08000b66:    f1ba0f07    ....    CMP      r10,#7
        0x08000b6a:    d202        ..      BCS      0x8000b72 ; HAL_NVIC_SetPriority + 66
        0x08000b6c:    f04f0a00    O...    MOV      r10,#0
        0x08000b70:    e001        ..      B        0x8000b76 ; HAL_NVIC_SetPriority + 70
        0x08000b72:    f1a00a03    ....    SUB      r10,r0,#3
        0x08000b76:    46d4        .F      MOV      r12,r10
        0x08000b78:    f04f0a01    O...    MOV      r10,#1
        0x08000b7c:    fa0afa09    ....    LSL      r10,r10,r9
        0x08000b80:    f1aa0a01    ....    SUB      r10,r10,#1
        0x08000b84:    ea0a0a02    ....    AND      r10,r10,r2
        0x08000b88:    fa0afa0c    ....    LSL      r10,r10,r12
        0x08000b8c:    f04f0b01    O...    MOV      r11,#1
        0x08000b90:    fa0bfb0c    ....    LSL      r11,r11,r12
        0x08000b94:    f1ab0b01    ....    SUB      r11,r11,#1
        0x08000b98:    ea0b0b03    ....    AND      r11,r11,r3
        0x08000b9c:    ea4a040b    J...    ORR      r4,r10,r11
        0x08000ba0:    4621        !F      MOV      r1,r4
        0x08000ba2:    4640        @F      MOV      r0,r8
        0x08000ba4:    f001fa90    ....    BL       __NVIC_SetPriority ; 0x80020c8
        0x08000ba8:    e8bd9ff0    ....    POP      {r4-r12,pc}
    i.HAL_NVIC_SetPriorityGrouping
    HAL_NVIC_SetPriorityGrouping
        0x08000bac:    bf00        ..      NOP      
        0x08000bae:    f0000207    ....    AND      r2,r0,#7
        0x08000bb2:    4b06        .K      LDR      r3,[pc,#24] ; [0x8000bcc] = 0xe000ed0c
        0x08000bb4:    6819        .h      LDR      r1,[r3,#0]
        0x08000bb6:    f64f03ff    O...    MOV      r3,#0xf8ff
        0x08000bba:    4019        .@      ANDS     r1,r1,r3
        0x08000bbc:    4b04        .K      LDR      r3,[pc,#16] ; [0x8000bd0] = 0x5fa0000
        0x08000bbe:    430b        .C      ORRS     r3,r3,r1
        0x08000bc0:    ea432102    C..!    ORR      r1,r3,r2,LSL #8
        0x08000bc4:    4b01        .K      LDR      r3,[pc,#4] ; [0x8000bcc] = 0xe000ed0c
        0x08000bc6:    6019        .`      STR      r1,[r3,#0]
        0x08000bc8:    bf00        ..      NOP      
        0x08000bca:    4770        pG      BX       lr
    $d
        0x08000bcc:    e000ed0c    ....    DCD    3758157068
        0x08000bd0:    05fa0000    ....    DCD    100270080
    $t
    i.HAL_RCC_ClockConfig
    HAL_RCC_ClockConfig
        0x08000bd4:    b570        p.      PUSH     {r4-r6,lr}
        0x08000bd6:    4604        .F      MOV      r4,r0
        0x08000bd8:    460d        .F      MOV      r5,r1
        0x08000bda:    b90c        ..      CBNZ     r4,0x8000be0 ; HAL_RCC_ClockConfig + 12
        0x08000bdc:    2001        .       MOVS     r0,#1
        0x08000bde:    bd70        p.      POP      {r4-r6,pc}
        0x08000be0:    485a        ZH      LDR      r0,[pc,#360] ; [0x8000d4c] = 0x40022000
        0x08000be2:    6800        .h      LDR      r0,[r0,#0]
        0x08000be4:    f0000007    ....    AND      r0,r0,#7
        0x08000be8:    42a8        .B      CMP      r0,r5
        0x08000bea:    d20e        ..      BCS      0x8000c0a ; HAL_RCC_ClockConfig + 54
        0x08000bec:    4857        WH      LDR      r0,[pc,#348] ; [0x8000d4c] = 0x40022000
        0x08000bee:    6800        .h      LDR      r0,[r0,#0]
        0x08000bf0:    f0200007     ...    BIC      r0,r0,#7
        0x08000bf4:    4328        (C      ORRS     r0,r0,r5
        0x08000bf6:    4955        UI      LDR      r1,[pc,#340] ; [0x8000d4c] = 0x40022000
        0x08000bf8:    6008        .`      STR      r0,[r1,#0]
        0x08000bfa:    4608        .F      MOV      r0,r1
        0x08000bfc:    6800        .h      LDR      r0,[r0,#0]
        0x08000bfe:    f0000007    ....    AND      r0,r0,#7
        0x08000c02:    42a8        .B      CMP      r0,r5
        0x08000c04:    d001        ..      BEQ      0x8000c0a ; HAL_RCC_ClockConfig + 54
        0x08000c06:    2001        .       MOVS     r0,#1
        0x08000c08:    e7e9        ..      B        0x8000bde ; HAL_RCC_ClockConfig + 10
        0x08000c0a:    7820         x      LDRB     r0,[r4,#0]
        0x08000c0c:    f0000002    ....    AND      r0,r0,#2
        0x08000c10:    2802        .(      CMP      r0,#2
        0x08000c12:    d11d        ..      BNE      0x8000c50 ; HAL_RCC_ClockConfig + 124
        0x08000c14:    7820         x      LDRB     r0,[r4,#0]
        0x08000c16:    f0000004    ....    AND      r0,r0,#4
        0x08000c1a:    2804        .(      CMP      r0,#4
        0x08000c1c:    d105        ..      BNE      0x8000c2a ; HAL_RCC_ClockConfig + 86
        0x08000c1e:    484c        LH      LDR      r0,[pc,#304] ; [0x8000d50] = 0x40021000
        0x08000c20:    6840        @h      LDR      r0,[r0,#4]
        0x08000c22:    f44060e0    @..`    ORR      r0,r0,#0x700
        0x08000c26:    494a        JI      LDR      r1,[pc,#296] ; [0x8000d50] = 0x40021000
        0x08000c28:    6048        H`      STR      r0,[r1,#4]
        0x08000c2a:    7820         x      LDRB     r0,[r4,#0]
        0x08000c2c:    f0000008    ....    AND      r0,r0,#8
        0x08000c30:    2808        .(      CMP      r0,#8
        0x08000c32:    d105        ..      BNE      0x8000c40 ; HAL_RCC_ClockConfig + 108
        0x08000c34:    4846        FH      LDR      r0,[pc,#280] ; [0x8000d50] = 0x40021000
        0x08000c36:    6840        @h      LDR      r0,[r0,#4]
        0x08000c38:    f4405060    @.`P    ORR      r0,r0,#0x3800
        0x08000c3c:    4944        DI      LDR      r1,[pc,#272] ; [0x8000d50] = 0x40021000
        0x08000c3e:    6048        H`      STR      r0,[r1,#4]
        0x08000c40:    4843        CH      LDR      r0,[pc,#268] ; [0x8000d50] = 0x40021000
        0x08000c42:    6840        @h      LDR      r0,[r0,#4]
        0x08000c44:    f02000f0     ...    BIC      r0,r0,#0xf0
        0x08000c48:    68a1        .h      LDR      r1,[r4,#8]
        0x08000c4a:    4308        .C      ORRS     r0,r0,r1
        0x08000c4c:    4940        @I      LDR      r1,[pc,#256] ; [0x8000d50] = 0x40021000
        0x08000c4e:    6048        H`      STR      r0,[r1,#4]
        0x08000c50:    7820         x      LDRB     r0,[r4,#0]
        0x08000c52:    f0000001    ....    AND      r0,r0,#1
        0x08000c56:    b378        x.      CBZ      r0,0x8000cb8 ; HAL_RCC_ClockConfig + 228
        0x08000c58:    6860        `h      LDR      r0,[r4,#4]
        0x08000c5a:    2801        .(      CMP      r0,#1
        0x08000c5c:    d106        ..      BNE      0x8000c6c ; HAL_RCC_ClockConfig + 152
        0x08000c5e:    483c        <H      LDR      r0,[pc,#240] ; [0x8000d50] = 0x40021000
        0x08000c60:    6800        .h      LDR      r0,[r0,#0]
        0x08000c62:    f4003000    ...0    AND      r0,r0,#0x20000
        0x08000c66:    b990        ..      CBNZ     r0,0x8000c8e ; HAL_RCC_ClockConfig + 186
        0x08000c68:    2001        .       MOVS     r0,#1
        0x08000c6a:    e7b8        ..      B        0x8000bde ; HAL_RCC_ClockConfig + 10
        0x08000c6c:    6860        `h      LDR      r0,[r4,#4]
        0x08000c6e:    2802        .(      CMP      r0,#2
        0x08000c70:    d106        ..      BNE      0x8000c80 ; HAL_RCC_ClockConfig + 172
        0x08000c72:    4837        7H      LDR      r0,[pc,#220] ; [0x8000d50] = 0x40021000
        0x08000c74:    6800        .h      LDR      r0,[r0,#0]
        0x08000c76:    f0007000    ...p    AND      r0,r0,#0x2000000
        0x08000c7a:    b940        @.      CBNZ     r0,0x8000c8e ; HAL_RCC_ClockConfig + 186
        0x08000c7c:    2001        .       MOVS     r0,#1
        0x08000c7e:    e7ae        ..      B        0x8000bde ; HAL_RCC_ClockConfig + 10
        0x08000c80:    4833        3H      LDR      r0,[pc,#204] ; [0x8000d50] = 0x40021000
        0x08000c82:    6800        .h      LDR      r0,[r0,#0]
        0x08000c84:    f0000002    ....    AND      r0,r0,#2
        0x08000c88:    b908        ..      CBNZ     r0,0x8000c8e ; HAL_RCC_ClockConfig + 186
        0x08000c8a:    2001        .       MOVS     r0,#1
        0x08000c8c:    e7a7        ..      B        0x8000bde ; HAL_RCC_ClockConfig + 10
        0x08000c8e:    4830        0H      LDR      r0,[pc,#192] ; [0x8000d50] = 0x40021000
        0x08000c90:    6840        @h      LDR      r0,[r0,#4]
        0x08000c92:    f0200003     ...    BIC      r0,r0,#3
        0x08000c96:    6861        ah      LDR      r1,[r4,#4]
        0x08000c98:    4308        .C      ORRS     r0,r0,r1
        0x08000c9a:    492d        -I      LDR      r1,[pc,#180] ; [0x8000d50] = 0x40021000
        0x08000c9c:    6048        H`      STR      r0,[r1,#4]
        0x08000c9e:    f7fffe9d    ....    BL       HAL_GetTick ; 0x80009dc
        0x08000ca2:    4606        .F      MOV      r6,r0
        0x08000ca4:    e009        ..      B        0x8000cba ; HAL_RCC_ClockConfig + 230
        0x08000ca6:    f7fffe99    ....    BL       HAL_GetTick ; 0x80009dc
        0x08000caa:    1b80        ..      SUBS     r0,r0,r6
        0x08000cac:    f2413188    A..1    MOV      r1,#0x1388
        0x08000cb0:    4288        .B      CMP      r0,r1
        0x08000cb2:    d902        ..      BLS      0x8000cba ; HAL_RCC_ClockConfig + 230
        0x08000cb4:    2003        .       MOVS     r0,#3
        0x08000cb6:    e792        ..      B        0x8000bde ; HAL_RCC_ClockConfig + 10
        0x08000cb8:    e007        ..      B        0x8000cca ; HAL_RCC_ClockConfig + 246
        0x08000cba:    4825        %H      LDR      r0,[pc,#148] ; [0x8000d50] = 0x40021000
        0x08000cbc:    6840        @h      LDR      r0,[r0,#4]
        0x08000cbe:    f000000c    ....    AND      r0,r0,#0xc
        0x08000cc2:    6861        ah      LDR      r1,[r4,#4]
        0x08000cc4:    ebb00f81    ....    CMP      r0,r1,LSL #2
        0x08000cc8:    d1ed        ..      BNE      0x8000ca6 ; HAL_RCC_ClockConfig + 210
        0x08000cca:    4820         H      LDR      r0,[pc,#128] ; [0x8000d4c] = 0x40022000
        0x08000ccc:    6800        .h      LDR      r0,[r0,#0]
        0x08000cce:    f0000007    ....    AND      r0,r0,#7
        0x08000cd2:    42a8        .B      CMP      r0,r5
        0x08000cd4:    d90e        ..      BLS      0x8000cf4 ; HAL_RCC_ClockConfig + 288
        0x08000cd6:    481d        .H      LDR      r0,[pc,#116] ; [0x8000d4c] = 0x40022000
        0x08000cd8:    6800        .h      LDR      r0,[r0,#0]
        0x08000cda:    f0200007     ...    BIC      r0,r0,#7
        0x08000cde:    4328        (C      ORRS     r0,r0,r5
        0x08000ce0:    491a        .I      LDR      r1,[pc,#104] ; [0x8000d4c] = 0x40022000
        0x08000ce2:    6008        .`      STR      r0,[r1,#0]
        0x08000ce4:    4608        .F      MOV      r0,r1
        0x08000ce6:    6800        .h      LDR      r0,[r0,#0]
        0x08000ce8:    f0000007    ....    AND      r0,r0,#7
        0x08000cec:    42a8        .B      CMP      r0,r5
        0x08000cee:    d001        ..      BEQ      0x8000cf4 ; HAL_RCC_ClockConfig + 288
        0x08000cf0:    2001        .       MOVS     r0,#1
        0x08000cf2:    e774        t.      B        0x8000bde ; HAL_RCC_ClockConfig + 10
        0x08000cf4:    7820         x      LDRB     r0,[r4,#0]
        0x08000cf6:    f0000004    ....    AND      r0,r0,#4
        0x08000cfa:    2804        .(      CMP      r0,#4
        0x08000cfc:    d107        ..      BNE      0x8000d0e ; HAL_RCC_ClockConfig + 314
        0x08000cfe:    4814        .H      LDR      r0,[pc,#80] ; [0x8000d50] = 0x40021000
        0x08000d00:    6840        @h      LDR      r0,[r0,#4]
        0x08000d02:    f42060e0     ..`    BIC      r0,r0,#0x700
        0x08000d06:    68e1        .h      LDR      r1,[r4,#0xc]
        0x08000d08:    4308        .C      ORRS     r0,r0,r1
        0x08000d0a:    4911        .I      LDR      r1,[pc,#68] ; [0x8000d50] = 0x40021000
        0x08000d0c:    6048        H`      STR      r0,[r1,#4]
        0x08000d0e:    7820         x      LDRB     r0,[r4,#0]
        0x08000d10:    f0000008    ....    AND      r0,r0,#8
        0x08000d14:    2808        .(      CMP      r0,#8
        0x08000d16:    d108        ..      BNE      0x8000d2a ; HAL_RCC_ClockConfig + 342
        0x08000d18:    480d        .H      LDR      r0,[pc,#52] ; [0x8000d50] = 0x40021000
        0x08000d1a:    6840        @h      LDR      r0,[r0,#4]
        0x08000d1c:    f4205060     .`P    BIC      r0,r0,#0x3800
        0x08000d20:    6921        !i      LDR      r1,[r4,#0x10]
        0x08000d22:    ea4000c1    @...    ORR      r0,r0,r1,LSL #3
        0x08000d26:    490a        .I      LDR      r1,[pc,#40] ; [0x8000d50] = 0x40021000
        0x08000d28:    6048        H`      STR      r0,[r1,#4]
        0x08000d2a:    f000f861    ..a.    BL       HAL_RCC_GetSysClockFreq ; 0x8000df0
        0x08000d2e:    4908        .I      LDR      r1,[pc,#32] ; [0x8000d50] = 0x40021000
        0x08000d30:    6849        Ih      LDR      r1,[r1,#4]
        0x08000d32:    f3c11103    ....    UBFX     r1,r1,#4,#4
        0x08000d36:    4a07        .J      LDR      r2,[pc,#28] ; [0x8000d54] = 0x80046ec
        0x08000d38:    5c51        Q\      LDRB     r1,[r2,r1]
        0x08000d3a:    40c8        .@      LSRS     r0,r0,r1
        0x08000d3c:    4906        .I      LDR      r1,[pc,#24] ; [0x8000d58] = 0x20000010
        0x08000d3e:    6008        .`      STR      r0,[r1,#0]
        0x08000d40:    4806        .H      LDR      r0,[pc,#24] ; [0x8000d5c] = 0x20000008
        0x08000d42:    6800        .h      LDR      r0,[r0,#0]
        0x08000d44:    f7fffe70    ..p.    BL       HAL_InitTick ; 0x8000a28
        0x08000d48:    2000        .       MOVS     r0,#0
        0x08000d4a:    e748        H.      B        0x8000bde ; HAL_RCC_ClockConfig + 10
    $d
        0x08000d4c:    40022000    . .@    DCD    1073881088
        0x08000d50:    40021000    ...@    DCD    1073876992
        0x08000d54:    080046ec    .F..    DCD    134235884
        0x08000d58:    20000010    ...     DCD    536870928
        0x08000d5c:    20000008    ...     DCD    536870920
    $t
    i.HAL_RCC_GetClockConfig
    HAL_RCC_GetClockConfig
        0x08000d60:    220f        ."      MOVS     r2,#0xf
        0x08000d62:    6002        .`      STR      r2,[r0,#0]
        0x08000d64:    4a0d        .J      LDR      r2,[pc,#52] ; [0x8000d9c] = 0x40021000
        0x08000d66:    6852        Rh      LDR      r2,[r2,#4]
        0x08000d68:    f0020203    ....    AND      r2,r2,#3
        0x08000d6c:    6042        B`      STR      r2,[r0,#4]
        0x08000d6e:    4a0b        .J      LDR      r2,[pc,#44] ; [0x8000d9c] = 0x40021000
        0x08000d70:    6852        Rh      LDR      r2,[r2,#4]
        0x08000d72:    f00202f0    ....    AND      r2,r2,#0xf0
        0x08000d76:    6082        .`      STR      r2,[r0,#8]
        0x08000d78:    4a08        .J      LDR      r2,[pc,#32] ; [0x8000d9c] = 0x40021000
        0x08000d7a:    6852        Rh      LDR      r2,[r2,#4]
        0x08000d7c:    f40262e0    ...b    AND      r2,r2,#0x700
        0x08000d80:    60c2        .`      STR      r2,[r0,#0xc]
        0x08000d82:    4a06        .J      LDR      r2,[pc,#24] ; [0x8000d9c] = 0x40021000
        0x08000d84:    6852        Rh      LDR      r2,[r2,#4]
        0x08000d86:    f4025260    ..`R    AND      r2,r2,#0x3800
        0x08000d8a:    08d2        ..      LSRS     r2,r2,#3
        0x08000d8c:    6102        .a      STR      r2,[r0,#0x10]
        0x08000d8e:    4a04        .J      LDR      r2,[pc,#16] ; [0x8000da0] = 0x40022000
        0x08000d90:    6812        .h      LDR      r2,[r2,#0]
        0x08000d92:    f0020207    ....    AND      r2,r2,#7
        0x08000d96:    600a        .`      STR      r2,[r1,#0]
        0x08000d98:    4770        pG      BX       lr
    $d
        0x08000d9a:    0000        ..      DCW    0
        0x08000d9c:    40021000    ...@    DCD    1073876992
        0x08000da0:    40022000    . .@    DCD    1073881088
    $t
    i.HAL_RCC_GetHCLKFreq
    HAL_RCC_GetHCLKFreq
        0x08000da4:    4801        .H      LDR      r0,[pc,#4] ; [0x8000dac] = 0x20000010
        0x08000da6:    6800        .h      LDR      r0,[r0,#0]
        0x08000da8:    4770        pG      BX       lr
    $d
        0x08000daa:    0000        ..      DCW    0
        0x08000dac:    20000010    ...     DCD    536870928
    $t
    i.HAL_RCC_GetPCLK1Freq
    HAL_RCC_GetPCLK1Freq
        0x08000db0:    b500        ..      PUSH     {lr}
        0x08000db2:    f7fffff7    ....    BL       HAL_RCC_GetHCLKFreq ; 0x8000da4
        0x08000db6:    4904        .I      LDR      r1,[pc,#16] ; [0x8000dc8] = 0x40021000
        0x08000db8:    6849        Ih      LDR      r1,[r1,#4]
        0x08000dba:    f3c12102    ...!    UBFX     r1,r1,#8,#3
        0x08000dbe:    4a03        .J      LDR      r2,[pc,#12] ; [0x8000dcc] = 0x80046fc
        0x08000dc0:    5c51        Q\      LDRB     r1,[r2,r1]
        0x08000dc2:    40c8        .@      LSRS     r0,r0,r1
        0x08000dc4:    bd00        ..      POP      {pc}
    $d
        0x08000dc6:    0000        ..      DCW    0
        0x08000dc8:    40021000    ...@    DCD    1073876992
        0x08000dcc:    080046fc    .F..    DCD    134235900
    $t
    i.HAL_RCC_GetPCLK2Freq
    HAL_RCC_GetPCLK2Freq
        0x08000dd0:    b500        ..      PUSH     {lr}
        0x08000dd2:    f7ffffe7    ....    BL       HAL_RCC_GetHCLKFreq ; 0x8000da4
        0x08000dd6:    4904        .I      LDR      r1,[pc,#16] ; [0x8000de8] = 0x40021000
        0x08000dd8:    6849        Ih      LDR      r1,[r1,#4]
        0x08000dda:    f3c121c2    ...!    UBFX     r1,r1,#11,#3
        0x08000dde:    4a03        .J      LDR      r2,[pc,#12] ; [0x8000dec] = 0x80046fc
        0x08000de0:    5c51        Q\      LDRB     r1,[r2,r1]
        0x08000de2:    40c8        .@      LSRS     r0,r0,r1
        0x08000de4:    bd00        ..      POP      {pc}
    $d
        0x08000de6:    0000        ..      DCW    0
        0x08000de8:    40021000    ...@    DCD    1073876992
        0x08000dec:    080046fc    .F..    DCD    134235900
    $t
    i.HAL_RCC_GetSysClockFreq
    HAL_RCC_GetSysClockFreq
        0x08000df0:    b5f0        ..      PUSH     {r4-r7,lr}
        0x08000df2:    b085        ..      SUB      sp,sp,#0x14
        0x08000df4:    f20f0c6c    ..l.    ADR.W    r12,{pc}+0x70 ; 0x8000e64
        0x08000df8:    e89c10e0    ....    LDM      r12,{r5-r7,r12}
        0x08000dfc:    a801        ..      ADD      r0,sp,#4
        0x08000dfe:    e8a010e0    ....    STM      r0!,{r5-r7,r12}
        0x08000e02:    a51c        ..      ADR      r5,{pc}+0x72 ; 0x8000e74
        0x08000e04:    682d        -h      LDR      r5,[r5,#0]
        0x08000e06:    9500        ..      STR      r5,[sp,#0]
        0x08000e08:    2100        .!      MOVS     r1,#0
        0x08000e0a:    2200        ."      MOVS     r2,#0
        0x08000e0c:    2300        .#      MOVS     r3,#0
        0x08000e0e:    2400        .$      MOVS     r4,#0
        0x08000e10:    2000        .       MOVS     r0,#0
        0x08000e12:    4d19        .M      LDR      r5,[pc,#100] ; [0x8000e78] = 0x40021000
        0x08000e14:    6869        ih      LDR      r1,[r5,#4]
        0x08000e16:    f001050c    ....    AND      r5,r1,#0xc
        0x08000e1a:    b1f5        ..      CBZ      r5,0x8000e5a ; HAL_RCC_GetSysClockFreq + 106
        0x08000e1c:    2d04        .-      CMP      r5,#4
        0x08000e1e:    d002        ..      BEQ      0x8000e26 ; HAL_RCC_GetSysClockFreq + 54
        0x08000e20:    2d08        .-      CMP      r5,#8
        0x08000e22:    d119        ..      BNE      0x8000e58 ; HAL_RCC_GetSysClockFreq + 104
        0x08000e24:    e001        ..      B        0x8000e2a ; HAL_RCC_GetSysClockFreq + 58
        0x08000e26:    4815        .H      LDR      r0,[pc,#84] ; [0x8000e7c] = 0x7a1200
        0x08000e28:    e019        ..      B        0x8000e5e ; HAL_RCC_GetSysClockFreq + 110
        0x08000e2a:    ad01        ..      ADD      r5,sp,#4
        0x08000e2c:    f3c14683    ...F    UBFX     r6,r1,#18,#4
        0x08000e30:    5dac        .]      LDRB     r4,[r5,r6]
        0x08000e32:    f4013580    ...5    AND      r5,r1,#0x10000
        0x08000e36:    b155        U.      CBZ      r5,0x8000e4e ; HAL_RCC_GetSysClockFreq + 94
        0x08000e38:    4d0f        .M      LDR      r5,[pc,#60] ; [0x8000e78] = 0x40021000
        0x08000e3a:    686d        mh      LDR      r5,[r5,#4]
        0x08000e3c:    f3c54540    ..@E    UBFX     r5,r5,#17,#1
        0x08000e40:    f81d2005    ...     LDRB     r2,[sp,r5]
        0x08000e44:    4d0d        .M      LDR      r5,[pc,#52] ; [0x8000e7c] = 0x7a1200
        0x08000e46:    4365        eC      MULS     r5,r4,r5
        0x08000e48:    fbb5f3f2    ....    UDIV     r3,r5,r2
        0x08000e4c:    e002        ..      B        0x8000e54 ; HAL_RCC_GetSysClockFreq + 100
        0x08000e4e:    4d0c        .M      LDR      r5,[pc,#48] ; [0x8000e80] = 0x3d0900
        0x08000e50:    fb04f305    ....    MUL      r3,r4,r5
        0x08000e54:    4618        .F      MOV      r0,r3
        0x08000e56:    e002        ..      B        0x8000e5e ; HAL_RCC_GetSysClockFreq + 110
        0x08000e58:    bf00        ..      NOP      
        0x08000e5a:    4808        .H      LDR      r0,[pc,#32] ; [0x8000e7c] = 0x7a1200
        0x08000e5c:    bf00        ..      NOP      
        0x08000e5e:    bf00        ..      NOP      
        0x08000e60:    b005        ..      ADD      sp,sp,#0x14
        0x08000e62:    bdf0        ..      POP      {r4-r7,pc}
    $d
        0x08000e64:    05040302    ....    DCD    84148994
        0x08000e68:    09080706    ....    DCD    151521030
        0x08000e6c:    0d0c0b0a    ....    DCD    218893066
        0x08000e70:    10100f0e    ....    DCD    269487886
        0x08000e74:    00000201    ....    DCD    513
        0x08000e78:    40021000    ...@    DCD    1073876992
        0x08000e7c:    007a1200    ..z.    DCD    8000000
        0x08000e80:    003d0900    ..=.    DCD    4000000
    $t
    i.HAL_RCC_OscConfig
    HAL_RCC_OscConfig
        0x08000e84:    b5f8        ..      PUSH     {r3-r7,lr}
        0x08000e86:    4604        .F      MOV      r4,r0
        0x08000e88:    b90c        ..      CBNZ     r4,0x8000e8e ; HAL_RCC_OscConfig + 10
        0x08000e8a:    2001        .       MOVS     r0,#1
        0x08000e8c:    bdf8        ..      POP      {r3-r7,pc}
        0x08000e8e:    7820         x      LDRB     r0,[r4,#0]
        0x08000e90:    f0000001    ....    AND      r0,r0,#1
        0x08000e94:    2800        .(      CMP      r0,#0
        0x08000e96:    d078        x.      BEQ      0x8000f8a ; HAL_RCC_OscConfig + 262
        0x08000e98:    48f8        .H      LDR      r0,[pc,#992] ; [0x800127c] = 0x40021000
        0x08000e9a:    6840        @h      LDR      r0,[r0,#4]
        0x08000e9c:    f000000c    ....    AND      r0,r0,#0xc
        0x08000ea0:    2804        .(      CMP      r0,#4
        0x08000ea2:    d00c        ..      BEQ      0x8000ebe ; HAL_RCC_OscConfig + 58
        0x08000ea4:    48f5        .H      LDR      r0,[pc,#980] ; [0x800127c] = 0x40021000
        0x08000ea6:    6840        @h      LDR      r0,[r0,#4]
        0x08000ea8:    f000000c    ....    AND      r0,r0,#0xc
        0x08000eac:    2808        .(      CMP      r0,#8
        0x08000eae:    d111        ..      BNE      0x8000ed4 ; HAL_RCC_OscConfig + 80
        0x08000eb0:    48f2        .H      LDR      r0,[pc,#968] ; [0x800127c] = 0x40021000
        0x08000eb2:    6840        @h      LDR      r0,[r0,#4]
        0x08000eb4:    f4003080    ...0    AND      r0,r0,#0x10000
        0x08000eb8:    f5b03f80    ...?    CMP      r0,#0x10000
        0x08000ebc:    d10a        ..      BNE      0x8000ed4 ; HAL_RCC_OscConfig + 80
        0x08000ebe:    48ef        .H      LDR      r0,[pc,#956] ; [0x800127c] = 0x40021000
        0x08000ec0:    6800        .h      LDR      r0,[r0,#0]
        0x08000ec2:    f4003000    ...0    AND      r0,r0,#0x20000
        0x08000ec6:    2800        .(      CMP      r0,#0
        0x08000ec8:    d05f        _.      BEQ      0x8000f8a ; HAL_RCC_OscConfig + 262
        0x08000eca:    6860        `h      LDR      r0,[r4,#4]
        0x08000ecc:    2800        .(      CMP      r0,#0
        0x08000ece:    d15c        \.      BNE      0x8000f8a ; HAL_RCC_OscConfig + 262
        0x08000ed0:    2001        .       MOVS     r0,#1
        0x08000ed2:    e7db        ..      B        0x8000e8c ; HAL_RCC_OscConfig + 8
        0x08000ed4:    bf00        ..      NOP      
        0x08000ed6:    6860        `h      LDR      r0,[r4,#4]
        0x08000ed8:    f5b03f80    ...?    CMP      r0,#0x10000
        0x08000edc:    d106        ..      BNE      0x8000eec ; HAL_RCC_OscConfig + 104
        0x08000ede:    48e7        .H      LDR      r0,[pc,#924] ; [0x800127c] = 0x40021000
        0x08000ee0:    6800        .h      LDR      r0,[r0,#0]
        0x08000ee2:    f4403080    @..0    ORR      r0,r0,#0x10000
        0x08000ee6:    49e5        .I      LDR      r1,[pc,#916] ; [0x800127c] = 0x40021000
        0x08000ee8:    6008        .`      STR      r0,[r1,#0]
        0x08000eea:    e028        (.      B        0x8000f3e ; HAL_RCC_OscConfig + 186
        0x08000eec:    6860        `h      LDR      r0,[r4,#4]
        0x08000eee:    b958        X.      CBNZ     r0,0x8000f08 ; HAL_RCC_OscConfig + 132
        0x08000ef0:    48e2        .H      LDR      r0,[pc,#904] ; [0x800127c] = 0x40021000
        0x08000ef2:    6800        .h      LDR      r0,[r0,#0]
        0x08000ef4:    f4203080     ..0    BIC      r0,r0,#0x10000
        0x08000ef8:    49e0        .I      LDR      r1,[pc,#896] ; [0x800127c] = 0x40021000
        0x08000efa:    6008        .`      STR      r0,[r1,#0]
        0x08000efc:    4608        .F      MOV      r0,r1
        0x08000efe:    6800        .h      LDR      r0,[r0,#0]
        0x08000f00:    f4202080     ..     BIC      r0,r0,#0x40000
        0x08000f04:    6008        .`      STR      r0,[r1,#0]
        0x08000f06:    e01a        ..      B        0x8000f3e ; HAL_RCC_OscConfig + 186
        0x08000f08:    6860        `h      LDR      r0,[r4,#4]
        0x08000f0a:    f5b02fa0    .../    CMP      r0,#0x50000
        0x08000f0e:    d10b        ..      BNE      0x8000f28 ; HAL_RCC_OscConfig + 164
        0x08000f10:    48da        .H      LDR      r0,[pc,#872] ; [0x800127c] = 0x40021000
        0x08000f12:    6800        .h      LDR      r0,[r0,#0]
        0x08000f14:    f4402080    @..     ORR      r0,r0,#0x40000
        0x08000f18:    49d8        .I      LDR      r1,[pc,#864] ; [0x800127c] = 0x40021000
        0x08000f1a:    6008        .`      STR      r0,[r1,#0]
        0x08000f1c:    4608        .F      MOV      r0,r1
        0x08000f1e:    6800        .h      LDR      r0,[r0,#0]
        0x08000f20:    f4403080    @..0    ORR      r0,r0,#0x10000
        0x08000f24:    6008        .`      STR      r0,[r1,#0]
        0x08000f26:    e00a        ..      B        0x8000f3e ; HAL_RCC_OscConfig + 186
        0x08000f28:    48d4        .H      LDR      r0,[pc,#848] ; [0x800127c] = 0x40021000
        0x08000f2a:    6800        .h      LDR      r0,[r0,#0]
        0x08000f2c:    f4203080     ..0    BIC      r0,r0,#0x10000
        0x08000f30:    49d2        .I      LDR      r1,[pc,#840] ; [0x800127c] = 0x40021000
        0x08000f32:    6008        .`      STR      r0,[r1,#0]
        0x08000f34:    4608        .F      MOV      r0,r1
        0x08000f36:    6800        .h      LDR      r0,[r0,#0]
        0x08000f38:    f4202080     ..     BIC      r0,r0,#0x40000
        0x08000f3c:    6008        .`      STR      r0,[r1,#0]
        0x08000f3e:    bf00        ..      NOP      
        0x08000f40:    6860        `h      LDR      r0,[r4,#4]
        0x08000f42:    b188        ..      CBZ      r0,0x8000f68 ; HAL_RCC_OscConfig + 228
        0x08000f44:    f7fffd4a    ..J.    BL       HAL_GetTick ; 0x80009dc
        0x08000f48:    4605        .F      MOV      r5,r0
        0x08000f4a:    e006        ..      B        0x8000f5a ; HAL_RCC_OscConfig + 214
        0x08000f4c:    f7fffd46    ..F.    BL       HAL_GetTick ; 0x80009dc
        0x08000f50:    1b40        @.      SUBS     r0,r0,r5
        0x08000f52:    2864        d(      CMP      r0,#0x64
        0x08000f54:    d901        ..      BLS      0x8000f5a ; HAL_RCC_OscConfig + 214
        0x08000f56:    2003        .       MOVS     r0,#3
        0x08000f58:    e798        ..      B        0x8000e8c ; HAL_RCC_OscConfig + 8
        0x08000f5a:    48c8        .H      LDR      r0,[pc,#800] ; [0x800127c] = 0x40021000
        0x08000f5c:    6800        .h      LDR      r0,[r0,#0]
        0x08000f5e:    f4003000    ...0    AND      r0,r0,#0x20000
        0x08000f62:    2800        .(      CMP      r0,#0
        0x08000f64:    d0f2        ..      BEQ      0x8000f4c ; HAL_RCC_OscConfig + 200
        0x08000f66:    e010        ..      B        0x8000f8a ; HAL_RCC_OscConfig + 262
        0x08000f68:    f7fffd38    ..8.    BL       HAL_GetTick ; 0x80009dc
        0x08000f6c:    4605        .F      MOV      r5,r0
        0x08000f6e:    e006        ..      B        0x8000f7e ; HAL_RCC_OscConfig + 250
        0x08000f70:    f7fffd34    ..4.    BL       HAL_GetTick ; 0x80009dc
        0x08000f74:    1b40        @.      SUBS     r0,r0,r5
        0x08000f76:    2864        d(      CMP      r0,#0x64
        0x08000f78:    d901        ..      BLS      0x8000f7e ; HAL_RCC_OscConfig + 250
        0x08000f7a:    2003        .       MOVS     r0,#3
        0x08000f7c:    e786        ..      B        0x8000e8c ; HAL_RCC_OscConfig + 8
        0x08000f7e:    48bf        .H      LDR      r0,[pc,#764] ; [0x800127c] = 0x40021000
        0x08000f80:    6800        .h      LDR      r0,[r0,#0]
        0x08000f82:    f4003000    ...0    AND      r0,r0,#0x20000
        0x08000f86:    2800        .(      CMP      r0,#0
        0x08000f88:    d1f2        ..      BNE      0x8000f70 ; HAL_RCC_OscConfig + 236
        0x08000f8a:    7820         x      LDRB     r0,[r4,#0]
        0x08000f8c:    f0000002    ....    AND      r0,r0,#2
        0x08000f90:    2802        .(      CMP      r0,#2
        0x08000f92:    d157        W.      BNE      0x8001044 ; HAL_RCC_OscConfig + 448
        0x08000f94:    48b9        .H      LDR      r0,[pc,#740] ; [0x800127c] = 0x40021000
        0x08000f96:    6840        @h      LDR      r0,[r0,#4]
        0x08000f98:    f000000c    ....    AND      r0,r0,#0xc
        0x08000f9c:    b150        P.      CBZ      r0,0x8000fb4 ; HAL_RCC_OscConfig + 304
        0x08000f9e:    48b7        .H      LDR      r0,[pc,#732] ; [0x800127c] = 0x40021000
        0x08000fa0:    6840        @h      LDR      r0,[r0,#4]
        0x08000fa2:    f000000c    ....    AND      r0,r0,#0xc
        0x08000fa6:    2808        .(      CMP      r0,#8
        0x08000fa8:    d118        ..      BNE      0x8000fdc ; HAL_RCC_OscConfig + 344
        0x08000faa:    48b4        .H      LDR      r0,[pc,#720] ; [0x800127c] = 0x40021000
        0x08000fac:    6840        @h      LDR      r0,[r0,#4]
        0x08000fae:    f4003080    ...0    AND      r0,r0,#0x10000
        0x08000fb2:    b998        ..      CBNZ     r0,0x8000fdc ; HAL_RCC_OscConfig + 344
        0x08000fb4:    48b1        .H      LDR      r0,[pc,#708] ; [0x800127c] = 0x40021000
        0x08000fb6:    6800        .h      LDR      r0,[r0,#0]
        0x08000fb8:    f0000002    ....    AND      r0,r0,#2
        0x08000fbc:    b120         .      CBZ      r0,0x8000fc8 ; HAL_RCC_OscConfig + 324
        0x08000fbe:    6920         i      LDR      r0,[r4,#0x10]
        0x08000fc0:    2801        .(      CMP      r0,#1
        0x08000fc2:    d001        ..      BEQ      0x8000fc8 ; HAL_RCC_OscConfig + 324
        0x08000fc4:    2001        .       MOVS     r0,#1
        0x08000fc6:    e761        a.      B        0x8000e8c ; HAL_RCC_OscConfig + 8
        0x08000fc8:    48ac        .H      LDR      r0,[pc,#688] ; [0x800127c] = 0x40021000
        0x08000fca:    6800        .h      LDR      r0,[r0,#0]
        0x08000fcc:    f02000f8     ...    BIC      r0,r0,#0xf8
        0x08000fd0:    6961        ai      LDR      r1,[r4,#0x14]
        0x08000fd2:    ea4000c1    @...    ORR      r0,r0,r1,LSL #3
        0x08000fd6:    49a9        .I      LDR      r1,[pc,#676] ; [0x800127c] = 0x40021000
        0x08000fd8:    6008        .`      STR      r0,[r1,#0]
        0x08000fda:    e033        3.      B        0x8001044 ; HAL_RCC_OscConfig + 448
        0x08000fdc:    6920         i      LDR      r0,[r4,#0x10]
        0x08000fde:    b1e8        ..      CBZ      r0,0x800101c ; HAL_RCC_OscConfig + 408
        0x08000fe0:    2001        .       MOVS     r0,#1
        0x08000fe2:    49a7        .I      LDR      r1,[pc,#668] ; [0x8001280] = 0x42420000
        0x08000fe4:    6008        .`      STR      r0,[r1,#0]
        0x08000fe6:    f7fffcf9    ....    BL       HAL_GetTick ; 0x80009dc
        0x08000fea:    4605        .F      MOV      r5,r0
        0x08000fec:    e006        ..      B        0x8000ffc ; HAL_RCC_OscConfig + 376
        0x08000fee:    f7fffcf5    ....    BL       HAL_GetTick ; 0x80009dc
        0x08000ff2:    1b40        @.      SUBS     r0,r0,r5
        0x08000ff4:    2802        .(      CMP      r0,#2
        0x08000ff6:    d901        ..      BLS      0x8000ffc ; HAL_RCC_OscConfig + 376
        0x08000ff8:    2003        .       MOVS     r0,#3
        0x08000ffa:    e747        G.      B        0x8000e8c ; HAL_RCC_OscConfig + 8
        0x08000ffc:    489f        .H      LDR      r0,[pc,#636] ; [0x800127c] = 0x40021000
        0x08000ffe:    6800        .h      LDR      r0,[r0,#0]
        0x08001000:    f0000002    ....    AND      r0,r0,#2
        0x08001004:    2800        .(      CMP      r0,#0
        0x08001006:    d0f2        ..      BEQ      0x8000fee ; HAL_RCC_OscConfig + 362
        0x08001008:    489c        .H      LDR      r0,[pc,#624] ; [0x800127c] = 0x40021000
        0x0800100a:    6800        .h      LDR      r0,[r0,#0]
        0x0800100c:    f02000f8     ...    BIC      r0,r0,#0xf8
        0x08001010:    6961        ai      LDR      r1,[r4,#0x14]
        0x08001012:    ea4000c1    @...    ORR      r0,r0,r1,LSL #3
        0x08001016:    4999        .I      LDR      r1,[pc,#612] ; [0x800127c] = 0x40021000
        0x08001018:    6008        .`      STR      r0,[r1,#0]
        0x0800101a:    e013        ..      B        0x8001044 ; HAL_RCC_OscConfig + 448
        0x0800101c:    2000        .       MOVS     r0,#0
        0x0800101e:    4998        .I      LDR      r1,[pc,#608] ; [0x8001280] = 0x42420000
        0x08001020:    6008        .`      STR      r0,[r1,#0]
        0x08001022:    f7fffcdb    ....    BL       HAL_GetTick ; 0x80009dc
        0x08001026:    4605        .F      MOV      r5,r0
        0x08001028:    e006        ..      B        0x8001038 ; HAL_RCC_OscConfig + 436
        0x0800102a:    f7fffcd7    ....    BL       HAL_GetTick ; 0x80009dc
        0x0800102e:    1b40        @.      SUBS     r0,r0,r5
        0x08001030:    2802        .(      CMP      r0,#2
        0x08001032:    d901        ..      BLS      0x8001038 ; HAL_RCC_OscConfig + 436
        0x08001034:    2003        .       MOVS     r0,#3
        0x08001036:    e729        ).      B        0x8000e8c ; HAL_RCC_OscConfig + 8
        0x08001038:    4890        .H      LDR      r0,[pc,#576] ; [0x800127c] = 0x40021000
        0x0800103a:    6800        .h      LDR      r0,[r0,#0]
        0x0800103c:    f0000002    ....    AND      r0,r0,#2
        0x08001040:    2800        .(      CMP      r0,#0
        0x08001042:    d1f2        ..      BNE      0x800102a ; HAL_RCC_OscConfig + 422
        0x08001044:    7820         x      LDRB     r0,[r4,#0]
        0x08001046:    f0000008    ....    AND      r0,r0,#8
        0x0800104a:    2808        .(      CMP      r0,#8
        0x0800104c:    d12d        -.      BNE      0x80010aa ; HAL_RCC_OscConfig + 550
        0x0800104e:    69a0        .i      LDR      r0,[r4,#0x18]
        0x08001050:    b1b8        ..      CBZ      r0,0x8001082 ; HAL_RCC_OscConfig + 510
        0x08001052:    2001        .       MOVS     r0,#1
        0x08001054:    498b        .I      LDR      r1,[pc,#556] ; [0x8001284] = 0x42420480
        0x08001056:    6008        .`      STR      r0,[r1,#0]
        0x08001058:    f7fffcc0    ....    BL       HAL_GetTick ; 0x80009dc
        0x0800105c:    4605        .F      MOV      r5,r0
        0x0800105e:    e006        ..      B        0x800106e ; HAL_RCC_OscConfig + 490
        0x08001060:    f7fffcbc    ....    BL       HAL_GetTick ; 0x80009dc
        0x08001064:    1b40        @.      SUBS     r0,r0,r5
        0x08001066:    2802        .(      CMP      r0,#2
        0x08001068:    d901        ..      BLS      0x800106e ; HAL_RCC_OscConfig + 490
        0x0800106a:    2003        .       MOVS     r0,#3
        0x0800106c:    e70e        ..      B        0x8000e8c ; HAL_RCC_OscConfig + 8
        0x0800106e:    4883        .H      LDR      r0,[pc,#524] ; [0x800127c] = 0x40021000
        0x08001070:    6a40        @j      LDR      r0,[r0,#0x24]
        0x08001072:    f0000002    ....    AND      r0,r0,#2
        0x08001076:    2800        .(      CMP      r0,#0
        0x08001078:    d0f2        ..      BEQ      0x8001060 ; HAL_RCC_OscConfig + 476
        0x0800107a:    2001        .       MOVS     r0,#1
        0x0800107c:    f000fdba    ....    BL       RCC_Delay ; 0x8001bf4
        0x08001080:    e013        ..      B        0x80010aa ; HAL_RCC_OscConfig + 550
        0x08001082:    2000        .       MOVS     r0,#0
        0x08001084:    497f        .I      LDR      r1,[pc,#508] ; [0x8001284] = 0x42420480
        0x08001086:    6008        .`      STR      r0,[r1,#0]
        0x08001088:    f7fffca8    ....    BL       HAL_GetTick ; 0x80009dc
        0x0800108c:    4605        .F      MOV      r5,r0
        0x0800108e:    e006        ..      B        0x800109e ; HAL_RCC_OscConfig + 538
        0x08001090:    f7fffca4    ....    BL       HAL_GetTick ; 0x80009dc
        0x08001094:    1b40        @.      SUBS     r0,r0,r5
        0x08001096:    2802        .(      CMP      r0,#2
        0x08001098:    d901        ..      BLS      0x800109e ; HAL_RCC_OscConfig + 538
        0x0800109a:    2003        .       MOVS     r0,#3
        0x0800109c:    e6f6        ..      B        0x8000e8c ; HAL_RCC_OscConfig + 8
        0x0800109e:    4877        wH      LDR      r0,[pc,#476] ; [0x800127c] = 0x40021000
        0x080010a0:    6a40        @j      LDR      r0,[r0,#0x24]
        0x080010a2:    f0000002    ....    AND      r0,r0,#2
        0x080010a6:    2800        .(      CMP      r0,#0
        0x080010a8:    d1f2        ..      BNE      0x8001090 ; HAL_RCC_OscConfig + 524
        0x080010aa:    7820         x      LDRB     r0,[r4,#0]
        0x080010ac:    f0000004    ....    AND      r0,r0,#4
        0x080010b0:    2804        .(      CMP      r0,#4
        0x080010b2:    d173        s.      BNE      0x800119c ; HAL_RCC_OscConfig + 792
        0x080010b4:    2700        .'      MOVS     r7,#0
        0x080010b6:    4871        qH      LDR      r0,[pc,#452] ; [0x800127c] = 0x40021000
        0x080010b8:    69c0        .i      LDR      r0,[r0,#0x1c]
        0x080010ba:    f0005080    ...P    AND      r0,r0,#0x10000000
        0x080010be:    b970        p.      CBNZ     r0,0x80010de ; HAL_RCC_OscConfig + 602
        0x080010c0:    bf00        ..      NOP      
        0x080010c2:    486e        nH      LDR      r0,[pc,#440] ; [0x800127c] = 0x40021000
        0x080010c4:    69c0        .i      LDR      r0,[r0,#0x1c]
        0x080010c6:    f0405080    @..P    ORR      r0,r0,#0x10000000
        0x080010ca:    496c        lI      LDR      r1,[pc,#432] ; [0x800127c] = 0x40021000
        0x080010cc:    61c8        .a      STR      r0,[r1,#0x1c]
        0x080010ce:    4608        .F      MOV      r0,r1
        0x080010d0:    69c0        .i      LDR      r0,[r0,#0x1c]
        0x080010d2:    f0005080    ...P    AND      r0,r0,#0x10000000
        0x080010d6:    9000        ..      STR      r0,[sp,#0]
        0x080010d8:    bf00        ..      NOP      
        0x080010da:    bf00        ..      NOP      
        0x080010dc:    2701        .'      MOVS     r7,#1
        0x080010de:    486a        jH      LDR      r0,[pc,#424] ; [0x8001288] = 0x40007000
        0x080010e0:    6800        .h      LDR      r0,[r0,#0]
        0x080010e2:    f4007080    ...p    AND      r0,r0,#0x100
        0x080010e6:    b9b0        ..      CBNZ     r0,0x8001116 ; HAL_RCC_OscConfig + 658
        0x080010e8:    4867        gH      LDR      r0,[pc,#412] ; [0x8001288] = 0x40007000
        0x080010ea:    6800        .h      LDR      r0,[r0,#0]
        0x080010ec:    f4407080    @..p    ORR      r0,r0,#0x100
        0x080010f0:    4965        eI      LDR      r1,[pc,#404] ; [0x8001288] = 0x40007000
        0x080010f2:    6008        .`      STR      r0,[r1,#0]
        0x080010f4:    f7fffc72    ..r.    BL       HAL_GetTick ; 0x80009dc
        0x080010f8:    4605        .F      MOV      r5,r0
        0x080010fa:    e006        ..      B        0x800110a ; HAL_RCC_OscConfig + 646
        0x080010fc:    f7fffc6e    ..n.    BL       HAL_GetTick ; 0x80009dc
        0x08001100:    1b40        @.      SUBS     r0,r0,r5
        0x08001102:    2864        d(      CMP      r0,#0x64
        0x08001104:    d901        ..      BLS      0x800110a ; HAL_RCC_OscConfig + 646
        0x08001106:    2003        .       MOVS     r0,#3
        0x08001108:    e6c0        ..      B        0x8000e8c ; HAL_RCC_OscConfig + 8
        0x0800110a:    485f        _H      LDR      r0,[pc,#380] ; [0x8001288] = 0x40007000
        0x0800110c:    6800        .h      LDR      r0,[r0,#0]
        0x0800110e:    f4007080    ...p    AND      r0,r0,#0x100
        0x08001112:    2800        .(      CMP      r0,#0
        0x08001114:    d0f2        ..      BEQ      0x80010fc ; HAL_RCC_OscConfig + 632
        0x08001116:    bf00        ..      NOP      
        0x08001118:    68e0        .h      LDR      r0,[r4,#0xc]
        0x0800111a:    2801        .(      CMP      r0,#1
        0x0800111c:    d106        ..      BNE      0x800112c ; HAL_RCC_OscConfig + 680
        0x0800111e:    4857        WH      LDR      r0,[pc,#348] ; [0x800127c] = 0x40021000
        0x08001120:    6a00        .j      LDR      r0,[r0,#0x20]
        0x08001122:    f0400001    @...    ORR      r0,r0,#1
        0x08001126:    4955        UI      LDR      r1,[pc,#340] ; [0x800127c] = 0x40021000
        0x08001128:    6208        .b      STR      r0,[r1,#0x20]
        0x0800112a:    e027        '.      B        0x800117c ; HAL_RCC_OscConfig + 760
        0x0800112c:    68e0        .h      LDR      r0,[r4,#0xc]
        0x0800112e:    b958        X.      CBNZ     r0,0x8001148 ; HAL_RCC_OscConfig + 708
        0x08001130:    4852        RH      LDR      r0,[pc,#328] ; [0x800127c] = 0x40021000
        0x08001132:    6a00        .j      LDR      r0,[r0,#0x20]
        0x08001134:    f0200001     ...    BIC      r0,r0,#1
        0x08001138:    4950        PI      LDR      r1,[pc,#320] ; [0x800127c] = 0x40021000
        0x0800113a:    6208        .b      STR      r0,[r1,#0x20]
        0x0800113c:    4608        .F      MOV      r0,r1
        0x0800113e:    6a00        .j      LDR      r0,[r0,#0x20]
        0x08001140:    f0200004     ...    BIC      r0,r0,#4
        0x08001144:    6208        .b      STR      r0,[r1,#0x20]
        0x08001146:    e019        ..      B        0x800117c ; HAL_RCC_OscConfig + 760
        0x08001148:    68e0        .h      LDR      r0,[r4,#0xc]
        0x0800114a:    2805        .(      CMP      r0,#5
        0x0800114c:    d10b        ..      BNE      0x8001166 ; HAL_RCC_OscConfig + 738
        0x0800114e:    484b        KH      LDR      r0,[pc,#300] ; [0x800127c] = 0x40021000
        0x08001150:    6a00        .j      LDR      r0,[r0,#0x20]
        0x08001152:    f0400004    @...    ORR      r0,r0,#4
        0x08001156:    4949        II      LDR      r1,[pc,#292] ; [0x800127c] = 0x40021000
        0x08001158:    6208        .b      STR      r0,[r1,#0x20]
        0x0800115a:    4608        .F      MOV      r0,r1
        0x0800115c:    6a00        .j      LDR      r0,[r0,#0x20]
        0x0800115e:    f0400001    @...    ORR      r0,r0,#1
        0x08001162:    6208        .b      STR      r0,[r1,#0x20]
        0x08001164:    e00a        ..      B        0x800117c ; HAL_RCC_OscConfig + 760
        0x08001166:    4845        EH      LDR      r0,[pc,#276] ; [0x800127c] = 0x40021000
        0x08001168:    6a00        .j      LDR      r0,[r0,#0x20]
        0x0800116a:    f0200001     ...    BIC      r0,r0,#1
        0x0800116e:    4943        CI      LDR      r1,[pc,#268] ; [0x800127c] = 0x40021000
        0x08001170:    6208        .b      STR      r0,[r1,#0x20]
        0x08001172:    4608        .F      MOV      r0,r1
        0x08001174:    6a00        .j      LDR      r0,[r0,#0x20]
        0x08001176:    f0200004     ...    BIC      r0,r0,#4
        0x0800117a:    6208        .b      STR      r0,[r1,#0x20]
        0x0800117c:    bf00        ..      NOP      
        0x0800117e:    68e0        .h      LDR      r0,[r4,#0xc]
        0x08001180:    b1a0        ..      CBZ      r0,0x80011ac ; HAL_RCC_OscConfig + 808
        0x08001182:    f7fffc2b    ..+.    BL       HAL_GetTick ; 0x80009dc
        0x08001186:    4605        .F      MOV      r5,r0
        0x08001188:    e009        ..      B        0x800119e ; HAL_RCC_OscConfig + 794
        0x0800118a:    f7fffc27    ..'.    BL       HAL_GetTick ; 0x80009dc
        0x0800118e:    1b40        @.      SUBS     r0,r0,r5
        0x08001190:    f2413188    A..1    MOV      r1,#0x1388
        0x08001194:    4288        .B      CMP      r0,r1
        0x08001196:    d902        ..      BLS      0x800119e ; HAL_RCC_OscConfig + 794
        0x08001198:    2003        .       MOVS     r0,#3
        0x0800119a:    e677        w.      B        0x8000e8c ; HAL_RCC_OscConfig + 8
        0x0800119c:    e022        ".      B        0x80011e4 ; HAL_RCC_OscConfig + 864
        0x0800119e:    4837        7H      LDR      r0,[pc,#220] ; [0x800127c] = 0x40021000
        0x080011a0:    6a00        .j      LDR      r0,[r0,#0x20]
        0x080011a2:    f0000002    ....    AND      r0,r0,#2
        0x080011a6:    2800        .(      CMP      r0,#0
        0x080011a8:    d0ef        ..      BEQ      0x800118a ; HAL_RCC_OscConfig + 774
        0x080011aa:    e012        ..      B        0x80011d2 ; HAL_RCC_OscConfig + 846
        0x080011ac:    f7fffc16    ....    BL       HAL_GetTick ; 0x80009dc
        0x080011b0:    4605        .F      MOV      r5,r0
        0x080011b2:    e008        ..      B        0x80011c6 ; HAL_RCC_OscConfig + 834
        0x080011b4:    f7fffc12    ....    BL       HAL_GetTick ; 0x80009dc
        0x080011b8:    1b40        @.      SUBS     r0,r0,r5
        0x080011ba:    f2413188    A..1    MOV      r1,#0x1388
        0x080011be:    4288        .B      CMP      r0,r1
        0x080011c0:    d901        ..      BLS      0x80011c6 ; HAL_RCC_OscConfig + 834
        0x080011c2:    2003        .       MOVS     r0,#3
        0x080011c4:    e662        b.      B        0x8000e8c ; HAL_RCC_OscConfig + 8
        0x080011c6:    482d        -H      LDR      r0,[pc,#180] ; [0x800127c] = 0x40021000
        0x080011c8:    6a00        .j      LDR      r0,[r0,#0x20]
        0x080011ca:    f0000002    ....    AND      r0,r0,#2
        0x080011ce:    2800        .(      CMP      r0,#0
        0x080011d0:    d1f0        ..      BNE      0x80011b4 ; HAL_RCC_OscConfig + 816
        0x080011d2:    2f01        ./      CMP      r7,#1
        0x080011d4:    d105        ..      BNE      0x80011e2 ; HAL_RCC_OscConfig + 862
        0x080011d6:    4829        )H      LDR      r0,[pc,#164] ; [0x800127c] = 0x40021000
        0x080011d8:    69c0        .i      LDR      r0,[r0,#0x1c]
        0x080011da:    f0205080     ..P    BIC      r0,r0,#0x10000000
        0x080011de:    4927        'I      LDR      r1,[pc,#156] ; [0x800127c] = 0x40021000
        0x080011e0:    61c8        .a      STR      r0,[r1,#0x1c]
        0x080011e2:    bf00        ..      NOP      
        0x080011e4:    69e0        .i      LDR      r0,[r4,#0x1c]
        0x080011e6:    b3c8        ..      CBZ      r0,0x800125c ; HAL_RCC_OscConfig + 984
        0x080011e8:    4824        $H      LDR      r0,[pc,#144] ; [0x800127c] = 0x40021000
        0x080011ea:    6840        @h      LDR      r0,[r0,#4]
        0x080011ec:    f000000c    ....    AND      r0,r0,#0xc
        0x080011f0:    2808        .(      CMP      r0,#8
        0x080011f2:    d060        `.      BEQ      0x80012b6 ; HAL_RCC_OscConfig + 1074
        0x080011f4:    69e0        .i      LDR      r0,[r4,#0x1c]
        0x080011f6:    2802        .(      CMP      r0,#2
        0x080011f8:    d148        H.      BNE      0x800128c ; HAL_RCC_OscConfig + 1032
        0x080011fa:    2000        .       MOVS     r0,#0
        0x080011fc:    4920         I      LDR      r1,[pc,#128] ; [0x8001280] = 0x42420000
        0x080011fe:    6608        .f      STR      r0,[r1,#0x60]
        0x08001200:    f7fffbec    ....    BL       HAL_GetTick ; 0x80009dc
        0x08001204:    4605        .F      MOV      r5,r0
        0x08001206:    e006        ..      B        0x8001216 ; HAL_RCC_OscConfig + 914
        0x08001208:    f7fffbe8    ....    BL       HAL_GetTick ; 0x80009dc
        0x0800120c:    1b40        @.      SUBS     r0,r0,r5
        0x0800120e:    2802        .(      CMP      r0,#2
        0x08001210:    d901        ..      BLS      0x8001216 ; HAL_RCC_OscConfig + 914
        0x08001212:    2003        .       MOVS     r0,#3
        0x08001214:    e63a        :.      B        0x8000e8c ; HAL_RCC_OscConfig + 8
        0x08001216:    4819        .H      LDR      r0,[pc,#100] ; [0x800127c] = 0x40021000
        0x08001218:    6800        .h      LDR      r0,[r0,#0]
        0x0800121a:    f0007000    ...p    AND      r0,r0,#0x2000000
        0x0800121e:    2800        .(      CMP      r0,#0
        0x08001220:    d1f2        ..      BNE      0x8001208 ; HAL_RCC_OscConfig + 900
        0x08001222:    6a20         j      LDR      r0,[r4,#0x20]
        0x08001224:    f5b03f80    ...?    CMP      r0,#0x10000
        0x08001228:    d107        ..      BNE      0x800123a ; HAL_RCC_OscConfig + 950
        0x0800122a:    4814        .H      LDR      r0,[pc,#80] ; [0x800127c] = 0x40021000
        0x0800122c:    6840        @h      LDR      r0,[r0,#4]
        0x0800122e:    f4203000     ..0    BIC      r0,r0,#0x20000
        0x08001232:    68a1        .h      LDR      r1,[r4,#8]
        0x08001234:    4308        .C      ORRS     r0,r0,r1
        0x08001236:    4911        .I      LDR      r1,[pc,#68] ; [0x800127c] = 0x40021000
        0x08001238:    6048        H`      STR      r0,[r1,#4]
        0x0800123a:    e9d40108    ....    LDRD     r0,r1,[r4,#0x20]
        0x0800123e:    4308        .C      ORRS     r0,r0,r1
        0x08001240:    490e        .I      LDR      r1,[pc,#56] ; [0x800127c] = 0x40021000
        0x08001242:    6849        Ih      LDR      r1,[r1,#4]
        0x08001244:    f4211174    !.t.    BIC      r1,r1,#0x3d0000
        0x08001248:    4308        .C      ORRS     r0,r0,r1
        0x0800124a:    490c        .I      LDR      r1,[pc,#48] ; [0x800127c] = 0x40021000
        0x0800124c:    6048        H`      STR      r0,[r1,#4]
        0x0800124e:    2001        .       MOVS     r0,#1
        0x08001250:    490b        .I      LDR      r1,[pc,#44] ; [0x8001280] = 0x42420000
        0x08001252:    6608        .f      STR      r0,[r1,#0x60]
        0x08001254:    f7fffbc2    ....    BL       HAL_GetTick ; 0x80009dc
        0x08001258:    4605        .F      MOV      r5,r0
        0x0800125a:    e007        ..      B        0x800126c ; HAL_RCC_OscConfig + 1000
        0x0800125c:    e03d        =.      B        0x80012da ; HAL_RCC_OscConfig + 1110
        0x0800125e:    f7fffbbd    ....    BL       HAL_GetTick ; 0x80009dc
        0x08001262:    1b40        @.      SUBS     r0,r0,r5
        0x08001264:    2802        .(      CMP      r0,#2
        0x08001266:    d901        ..      BLS      0x800126c ; HAL_RCC_OscConfig + 1000
        0x08001268:    2003        .       MOVS     r0,#3
        0x0800126a:    e60f        ..      B        0x8000e8c ; HAL_RCC_OscConfig + 8
        0x0800126c:    4803        .H      LDR      r0,[pc,#12] ; [0x800127c] = 0x40021000
        0x0800126e:    6800        .h      LDR      r0,[r0,#0]
        0x08001270:    f0007000    ...p    AND      r0,r0,#0x2000000
        0x08001274:    2800        .(      CMP      r0,#0
        0x08001276:    d0f2        ..      BEQ      0x800125e ; HAL_RCC_OscConfig + 986
        0x08001278:    e02f        /.      B        0x80012da ; HAL_RCC_OscConfig + 1110
    $d
        0x0800127a:    0000        ..      DCW    0
        0x0800127c:    40021000    ...@    DCD    1073876992
        0x08001280:    42420000    ..BB    DCD    1111621632
        0x08001284:    42420480    ..BB    DCD    1111622784
        0x08001288:    40007000    .p.@    DCD    1073770496
    $t
        0x0800128c:    2000        .       MOVS     r0,#0
        0x0800128e:    4914        .I      LDR      r1,[pc,#80] ; [0x80012e0] = 0x42420000
        0x08001290:    6608        .f      STR      r0,[r1,#0x60]
        0x08001292:    f7fffba3    ....    BL       HAL_GetTick ; 0x80009dc
        0x08001296:    4605        .F      MOV      r5,r0
        0x08001298:    e006        ..      B        0x80012a8 ; HAL_RCC_OscConfig + 1060
        0x0800129a:    f7fffb9f    ....    BL       HAL_GetTick ; 0x80009dc
        0x0800129e:    1b40        @.      SUBS     r0,r0,r5
        0x080012a0:    2802        .(      CMP      r0,#2
        0x080012a2:    d901        ..      BLS      0x80012a8 ; HAL_RCC_OscConfig + 1060
        0x080012a4:    2003        .       MOVS     r0,#3
        0x080012a6:    e5f1        ..      B        0x8000e8c ; HAL_RCC_OscConfig + 8
        0x080012a8:    480e        .H      LDR      r0,[pc,#56] ; [0x80012e4] = 0x40021000
        0x080012aa:    6800        .h      LDR      r0,[r0,#0]
        0x080012ac:    f0007000    ...p    AND      r0,r0,#0x2000000
        0x080012b0:    2800        .(      CMP      r0,#0
        0x080012b2:    d1f2        ..      BNE      0x800129a ; HAL_RCC_OscConfig + 1046
        0x080012b4:    e011        ..      B        0x80012da ; HAL_RCC_OscConfig + 1110
        0x080012b6:    69e0        .i      LDR      r0,[r4,#0x1c]
        0x080012b8:    2801        .(      CMP      r0,#1
        0x080012ba:    d100        ..      BNE      0x80012be ; HAL_RCC_OscConfig + 1082
        0x080012bc:    e5e6        ..      B        0x8000e8c ; HAL_RCC_OscConfig + 8
        0x080012be:    4809        .H      LDR      r0,[pc,#36] ; [0x80012e4] = 0x40021000
        0x080012c0:    6846        Fh      LDR      r6,[r0,#4]
        0x080012c2:    f4063180    ...1    AND      r1,r6,#0x10000
        0x080012c6:    6a20         j      LDR      r0,[r4,#0x20]
        0x080012c8:    4281        .B      CMP      r1,r0
        0x080012ca:    d104        ..      BNE      0x80012d6 ; HAL_RCC_OscConfig + 1106
        0x080012cc:    f4061170    ..p.    AND      r1,r6,#0x3c0000
        0x080012d0:    6a60        `j      LDR      r0,[r4,#0x24]
        0x080012d2:    4281        .B      CMP      r1,r0
        0x080012d4:    d001        ..      BEQ      0x80012da ; HAL_RCC_OscConfig + 1110
        0x080012d6:    2001        .       MOVS     r0,#1
        0x080012d8:    e5d8        ..      B        0x8000e8c ; HAL_RCC_OscConfig + 8
        0x080012da:    2000        .       MOVS     r0,#0
        0x080012dc:    e5d6        ..      B        0x8000e8c ; HAL_RCC_OscConfig + 8
    $d
        0x080012de:    0000        ..      DCW    0
        0x080012e0:    42420000    ..BB    DCD    1111621632
        0x080012e4:    40021000    ...@    DCD    1073876992
    $t
    i.HAL_TIMEx_BreakCallback
    HAL_TIMEx_BreakCallback
        0x080012e8:    4770        pG      BX       lr
    i.HAL_TIMEx_CommutCallback
    HAL_TIMEx_CommutCallback
        0x080012ea:    4770        pG      BX       lr
    i.HAL_TIM_Base_Init
    HAL_TIM_Base_Init
        0x080012ec:    b510        ..      PUSH     {r4,lr}
        0x080012ee:    4604        .F      MOV      r4,r0
        0x080012f0:    b90c        ..      CBNZ     r4,0x80012f6 ; HAL_TIM_Base_Init + 10
        0x080012f2:    2001        .       MOVS     r0,#1
        0x080012f4:    bd10        ..      POP      {r4,pc}
        0x080012f6:    f894003d    ..=.    LDRB     r0,[r4,#0x3d]
        0x080012fa:    b928        (.      CBNZ     r0,0x8001308 ; HAL_TIM_Base_Init + 28
        0x080012fc:    2000        .       MOVS     r0,#0
        0x080012fe:    f884003c    ..<.    STRB     r0,[r4,#0x3c]
        0x08001302:    4620         F      MOV      r0,r4
        0x08001304:    f000f825    ..%.    BL       HAL_TIM_Base_MspInit ; 0x8001352
        0x08001308:    2002        .       MOVS     r0,#2
        0x0800130a:    f884003d    ..=.    STRB     r0,[r4,#0x3d]
        0x0800130e:    1d21        !.      ADDS     r1,r4,#4
        0x08001310:    6820         h      LDR      r0,[r4,#0]
        0x08001312:    f000fceb    ....    BL       TIM_Base_SetConfig ; 0x8001cec
        0x08001316:    2001        .       MOVS     r0,#1
        0x08001318:    f8840046    ..F.    STRB     r0,[r4,#0x46]
        0x0800131c:    bf00        ..      NOP      
        0x0800131e:    f884003e    ..>.    STRB     r0,[r4,#0x3e]
        0x08001322:    2101        .!      MOVS     r1,#1
        0x08001324:    203f        ?       MOVS     r0,#0x3f
        0x08001326:    5501        .U      STRB     r1,[r0,r4]
        0x08001328:    2040        @       MOVS     r0,#0x40
        0x0800132a:    5501        .U      STRB     r1,[r0,r4]
        0x0800132c:    2041        A       MOVS     r0,#0x41
        0x0800132e:    5501        .U      STRB     r1,[r0,r4]
        0x08001330:    bf00        ..      NOP      
        0x08001332:    bf00        ..      NOP      
        0x08001334:    2001        .       MOVS     r0,#1
        0x08001336:    f8840042    ..B.    STRB     r0,[r4,#0x42]
        0x0800133a:    2043        C       MOVS     r0,#0x43
        0x0800133c:    5501        .U      STRB     r1,[r0,r4]
        0x0800133e:    2044        D       MOVS     r0,#0x44
        0x08001340:    5501        .U      STRB     r1,[r0,r4]
        0x08001342:    2045        E       MOVS     r0,#0x45
        0x08001344:    5501        .U      STRB     r1,[r0,r4]
        0x08001346:    bf00        ..      NOP      
        0x08001348:    2001        .       MOVS     r0,#1
        0x0800134a:    f884003d    ..=.    STRB     r0,[r4,#0x3d]
        0x0800134e:    2000        .       MOVS     r0,#0
        0x08001350:    e7d0        ..      B        0x80012f4 ; HAL_TIM_Base_Init + 8
    i.HAL_TIM_Base_MspInit
    HAL_TIM_Base_MspInit
        0x08001352:    4770        pG      BX       lr
    i.HAL_TIM_Base_Start_IT
    HAL_TIM_Base_Start_IT
        0x08001354:    4601        .F      MOV      r1,r0
        0x08001356:    f891003d    ..=.    LDRB     r0,[r1,#0x3d]
        0x0800135a:    2801        .(      CMP      r0,#1
        0x0800135c:    d001        ..      BEQ      0x8001362 ; HAL_TIM_Base_Start_IT + 14
        0x0800135e:    2001        .       MOVS     r0,#1
        0x08001360:    4770        pG      BX       lr
        0x08001362:    2002        .       MOVS     r0,#2
        0x08001364:    f881003d    ..=.    STRB     r0,[r1,#0x3d]
        0x08001368:    6808        .h      LDR      r0,[r1,#0]
        0x0800136a:    68c0        .h      LDR      r0,[r0,#0xc]
        0x0800136c:    f0400001    @...    ORR      r0,r0,#1
        0x08001370:    680b        .h      LDR      r3,[r1,#0]
        0x08001372:    60d8        .`      STR      r0,[r3,#0xc]
        0x08001374:    4b16        .K      LDR      r3,[pc,#88] ; [0x80013d0] = 0x40012c00
        0x08001376:    6808        .h      LDR      r0,[r1,#0]
        0x08001378:    4298        .B      CMP      r0,r3
        0x0800137a:    d013        ..      BEQ      0x80013a4 ; HAL_TIM_Base_Start_IT + 80
        0x0800137c:    4b15        .K      LDR      r3,[pc,#84] ; [0x80013d4] = 0x40013400
        0x0800137e:    6808        .h      LDR      r0,[r1,#0]
        0x08001380:    4298        .B      CMP      r0,r3
        0x08001382:    d00f        ..      BEQ      0x80013a4 ; HAL_TIM_Base_Start_IT + 80
        0x08001384:    6808        .h      LDR      r0,[r1,#0]
        0x08001386:    f1b04f80    ...O    CMP      r0,#0x40000000
        0x0800138a:    d00b        ..      BEQ      0x80013a4 ; HAL_TIM_Base_Start_IT + 80
        0x0800138c:    4b12        .K      LDR      r3,[pc,#72] ; [0x80013d8] = 0x40000400
        0x0800138e:    6808        .h      LDR      r0,[r1,#0]
        0x08001390:    4298        .B      CMP      r0,r3
        0x08001392:    d007        ..      BEQ      0x80013a4 ; HAL_TIM_Base_Start_IT + 80
        0x08001394:    4b11        .K      LDR      r3,[pc,#68] ; [0x80013dc] = 0x40000800
        0x08001396:    6808        .h      LDR      r0,[r1,#0]
        0x08001398:    4298        .B      CMP      r0,r3
        0x0800139a:    d003        ..      BEQ      0x80013a4 ; HAL_TIM_Base_Start_IT + 80
        0x0800139c:    4b10        .K      LDR      r3,[pc,#64] ; [0x80013e0] = 0x40000c00
        0x0800139e:    6808        .h      LDR      r0,[r1,#0]
        0x080013a0:    4298        .B      CMP      r0,r3
        0x080013a2:    d10c        ..      BNE      0x80013be ; HAL_TIM_Base_Start_IT + 106
        0x080013a4:    6808        .h      LDR      r0,[r1,#0]
        0x080013a6:    6880        .h      LDR      r0,[r0,#8]
        0x080013a8:    f0000207    ....    AND      r2,r0,#7
        0x080013ac:    2a06        .*      CMP      r2,#6
        0x080013ae:    d00c        ..      BEQ      0x80013ca ; HAL_TIM_Base_Start_IT + 118
        0x080013b0:    6808        .h      LDR      r0,[r1,#0]
        0x080013b2:    6800        .h      LDR      r0,[r0,#0]
        0x080013b4:    f0400001    @...    ORR      r0,r0,#1
        0x080013b8:    680b        .h      LDR      r3,[r1,#0]
        0x080013ba:    6018        .`      STR      r0,[r3,#0]
        0x080013bc:    e005        ..      B        0x80013ca ; HAL_TIM_Base_Start_IT + 118
        0x080013be:    6808        .h      LDR      r0,[r1,#0]
        0x080013c0:    6800        .h      LDR      r0,[r0,#0]
        0x080013c2:    f0400001    @...    ORR      r0,r0,#1
        0x080013c6:    680b        .h      LDR      r3,[r1,#0]
        0x080013c8:    6018        .`      STR      r0,[r3,#0]
        0x080013ca:    2000        .       MOVS     r0,#0
        0x080013cc:    e7c8        ..      B        0x8001360 ; HAL_TIM_Base_Start_IT + 12
    $d
        0x080013ce:    0000        ..      DCW    0
        0x080013d0:    40012c00    .,.@    DCD    1073818624
        0x080013d4:    40013400    .4.@    DCD    1073820672
        0x080013d8:    40000400    ...@    DCD    1073742848
        0x080013dc:    40000800    ...@    DCD    1073743872
        0x080013e0:    40000c00    ...@    DCD    1073744896
    $t
    i.HAL_TIM_IC_CaptureCallback
    HAL_TIM_IC_CaptureCallback
        0x080013e4:    4770        pG      BX       lr
    i.HAL_TIM_IRQHandler
    HAL_TIM_IRQHandler
        0x080013e6:    b510        ..      PUSH     {r4,lr}
        0x080013e8:    4604        .F      MOV      r4,r0
        0x080013ea:    6820         h      LDR      r0,[r4,#0]
        0x080013ec:    6900        .i      LDR      r0,[r0,#0x10]
        0x080013ee:    f3c00040    ..@.    UBFX     r0,r0,#1,#1
        0x080013f2:    b1d8        ..      CBZ      r0,0x800142c ; HAL_TIM_IRQHandler + 70
        0x080013f4:    6820         h      LDR      r0,[r4,#0]
        0x080013f6:    68c0        .h      LDR      r0,[r0,#0xc]
        0x080013f8:    f3c00040    ..@.    UBFX     r0,r0,#1,#1
        0x080013fc:    b1b0        ..      CBZ      r0,0x800142c ; HAL_TIM_IRQHandler + 70
        0x080013fe:    f06f0002    o...    MVN      r0,#2
        0x08001402:    6821        !h      LDR      r1,[r4,#0]
        0x08001404:    6108        .a      STR      r0,[r1,#0x10]
        0x08001406:    2001        .       MOVS     r0,#1
        0x08001408:    7720         w      STRB     r0,[r4,#0x1c]
        0x0800140a:    6820         h      LDR      r0,[r4,#0]
        0x0800140c:    6980        .i      LDR      r0,[r0,#0x18]
        0x0800140e:    f0000003    ....    AND      r0,r0,#3
        0x08001412:    b118        ..      CBZ      r0,0x800141c ; HAL_TIM_IRQHandler + 54
        0x08001414:    4620         F      MOV      r0,r4
        0x08001416:    f7ffffe5    ....    BL       HAL_TIM_IC_CaptureCallback ; 0x80013e4
        0x0800141a:    e005        ..      B        0x8001428 ; HAL_TIM_IRQHandler + 66
        0x0800141c:    4620         F      MOV      r0,r4
        0x0800141e:    f000f8ad    ....    BL       HAL_TIM_OC_DelayElapsedCallback ; 0x800157c
        0x08001422:    4620         F      MOV      r0,r4
        0x08001424:    f000f8ab    ....    BL       HAL_TIM_PWM_PulseFinishedCallback ; 0x800157e
        0x08001428:    2000        .       MOVS     r0,#0
        0x0800142a:    7720         w      STRB     r0,[r4,#0x1c]
        0x0800142c:    6820         h      LDR      r0,[r4,#0]
        0x0800142e:    6900        .i      LDR      r0,[r0,#0x10]
        0x08001430:    f3c00080    ....    UBFX     r0,r0,#2,#1
        0x08001434:    b1d8        ..      CBZ      r0,0x800146e ; HAL_TIM_IRQHandler + 136
        0x08001436:    6820         h      LDR      r0,[r4,#0]
        0x08001438:    68c0        .h      LDR      r0,[r0,#0xc]
        0x0800143a:    f3c00080    ....    UBFX     r0,r0,#2,#1
        0x0800143e:    b1b0        ..      CBZ      r0,0x800146e ; HAL_TIM_IRQHandler + 136
        0x08001440:    f06f0004    o...    MVN      r0,#4
        0x08001444:    6821        !h      LDR      r1,[r4,#0]
        0x08001446:    6108        .a      STR      r0,[r1,#0x10]
        0x08001448:    2002        .       MOVS     r0,#2
        0x0800144a:    7720         w      STRB     r0,[r4,#0x1c]
        0x0800144c:    6820         h      LDR      r0,[r4,#0]
        0x0800144e:    6980        .i      LDR      r0,[r0,#0x18]
        0x08001450:    f4007040    ..@p    AND      r0,r0,#0x300
        0x08001454:    b118        ..      CBZ      r0,0x800145e ; HAL_TIM_IRQHandler + 120
        0x08001456:    4620         F      MOV      r0,r4
        0x08001458:    f7ffffc4    ....    BL       HAL_TIM_IC_CaptureCallback ; 0x80013e4
        0x0800145c:    e005        ..      B        0x800146a ; HAL_TIM_IRQHandler + 132
        0x0800145e:    4620         F      MOV      r0,r4
        0x08001460:    f000f88c    ....    BL       HAL_TIM_OC_DelayElapsedCallback ; 0x800157c
        0x08001464:    4620         F      MOV      r0,r4
        0x08001466:    f000f88a    ....    BL       HAL_TIM_PWM_PulseFinishedCallback ; 0x800157e
        0x0800146a:    2000        .       MOVS     r0,#0
        0x0800146c:    7720         w      STRB     r0,[r4,#0x1c]
        0x0800146e:    6820         h      LDR      r0,[r4,#0]
        0x08001470:    6900        .i      LDR      r0,[r0,#0x10]
        0x08001472:    f3c000c0    ....    UBFX     r0,r0,#3,#1
        0x08001476:    b1d8        ..      CBZ      r0,0x80014b0 ; HAL_TIM_IRQHandler + 202
        0x08001478:    6820         h      LDR      r0,[r4,#0]
        0x0800147a:    68c0        .h      LDR      r0,[r0,#0xc]
        0x0800147c:    f3c000c0    ....    UBFX     r0,r0,#3,#1
        0x08001480:    b1b0        ..      CBZ      r0,0x80014b0 ; HAL_TIM_IRQHandler + 202
        0x08001482:    f06f0008    o...    MVN      r0,#8
        0x08001486:    6821        !h      LDR      r1,[r4,#0]
        0x08001488:    6108        .a      STR      r0,[r1,#0x10]
        0x0800148a:    2004        .       MOVS     r0,#4
        0x0800148c:    7720         w      STRB     r0,[r4,#0x1c]
        0x0800148e:    6820         h      LDR      r0,[r4,#0]
        0x08001490:    69c0        .i      LDR      r0,[r0,#0x1c]
        0x08001492:    f0000003    ....    AND      r0,r0,#3
        0x08001496:    b118        ..      CBZ      r0,0x80014a0 ; HAL_TIM_IRQHandler + 186
        0x08001498:    4620         F      MOV      r0,r4
        0x0800149a:    f7ffffa3    ....    BL       HAL_TIM_IC_CaptureCallback ; 0x80013e4
        0x0800149e:    e005        ..      B        0x80014ac ; HAL_TIM_IRQHandler + 198
        0x080014a0:    4620         F      MOV      r0,r4
        0x080014a2:    f000f86b    ..k.    BL       HAL_TIM_OC_DelayElapsedCallback ; 0x800157c
        0x080014a6:    4620         F      MOV      r0,r4
        0x080014a8:    f000f869    ..i.    BL       HAL_TIM_PWM_PulseFinishedCallback ; 0x800157e
        0x080014ac:    2000        .       MOVS     r0,#0
        0x080014ae:    7720         w      STRB     r0,[r4,#0x1c]
        0x080014b0:    6820         h      LDR      r0,[r4,#0]
        0x080014b2:    6900        .i      LDR      r0,[r0,#0x10]
        0x080014b4:    f3c01000    ....    UBFX     r0,r0,#4,#1
        0x080014b8:    b1d8        ..      CBZ      r0,0x80014f2 ; HAL_TIM_IRQHandler + 268
        0x080014ba:    6820         h      LDR      r0,[r4,#0]
        0x080014bc:    68c0        .h      LDR      r0,[r0,#0xc]
        0x080014be:    f3c01000    ....    UBFX     r0,r0,#4,#1
        0x080014c2:    b1b0        ..      CBZ      r0,0x80014f2 ; HAL_TIM_IRQHandler + 268
        0x080014c4:    f06f0010    o...    MVN      r0,#0x10
        0x080014c8:    6821        !h      LDR      r1,[r4,#0]
        0x080014ca:    6108        .a      STR      r0,[r1,#0x10]
        0x080014cc:    2008        .       MOVS     r0,#8
        0x080014ce:    7720         w      STRB     r0,[r4,#0x1c]
        0x080014d0:    6820         h      LDR      r0,[r4,#0]
        0x080014d2:    69c0        .i      LDR      r0,[r0,#0x1c]
        0x080014d4:    f4007040    ..@p    AND      r0,r0,#0x300
        0x080014d8:    b118        ..      CBZ      r0,0x80014e2 ; HAL_TIM_IRQHandler + 252
        0x080014da:    4620         F      MOV      r0,r4
        0x080014dc:    f7ffff82    ....    BL       HAL_TIM_IC_CaptureCallback ; 0x80013e4
        0x080014e0:    e005        ..      B        0x80014ee ; HAL_TIM_IRQHandler + 264
        0x080014e2:    4620         F      MOV      r0,r4
        0x080014e4:    f000f84a    ..J.    BL       HAL_TIM_OC_DelayElapsedCallback ; 0x800157c
        0x080014e8:    4620         F      MOV      r0,r4
        0x080014ea:    f000f848    ..H.    BL       HAL_TIM_PWM_PulseFinishedCallback ; 0x800157e
        0x080014ee:    2000        .       MOVS     r0,#0
        0x080014f0:    7720         w      STRB     r0,[r4,#0x1c]
        0x080014f2:    6820         h      LDR      r0,[r4,#0]
        0x080014f4:    6900        .i      LDR      r0,[r0,#0x10]
        0x080014f6:    f0000001    ....    AND      r0,r0,#1
        0x080014fa:    b158        X.      CBZ      r0,0x8001514 ; HAL_TIM_IRQHandler + 302
        0x080014fc:    6820         h      LDR      r0,[r4,#0]
        0x080014fe:    68c0        .h      LDR      r0,[r0,#0xc]
        0x08001500:    f0000001    ....    AND      r0,r0,#1
        0x08001504:    b130        0.      CBZ      r0,0x8001514 ; HAL_TIM_IRQHandler + 302
        0x08001506:    f06f0001    o...    MVN      r0,#1
        0x0800150a:    6821        !h      LDR      r1,[r4,#0]
        0x0800150c:    6108        .a      STR      r0,[r1,#0x10]
        0x0800150e:    4620         F      MOV      r0,r4
        0x08001510:    f000f836    ..6.    BL       HAL_TIM_PeriodElapsedCallback ; 0x8001580
        0x08001514:    6820         h      LDR      r0,[r4,#0]
        0x08001516:    6900        .i      LDR      r0,[r0,#0x10]
        0x08001518:    f3c010c0    ....    UBFX     r0,r0,#7,#1
        0x0800151c:    b158        X.      CBZ      r0,0x8001536 ; HAL_TIM_IRQHandler + 336
        0x0800151e:    6820         h      LDR      r0,[r4,#0]
        0x08001520:    68c0        .h      LDR      r0,[r0,#0xc]
        0x08001522:    f3c010c0    ....    UBFX     r0,r0,#7,#1
        0x08001526:    b130        0.      CBZ      r0,0x8001536 ; HAL_TIM_IRQHandler + 336
        0x08001528:    f06f0080    o...    MVN      r0,#0x80
        0x0800152c:    6821        !h      LDR      r1,[r4,#0]
        0x0800152e:    6108        .a      STR      r0,[r1,#0x10]
        0x08001530:    4620         F      MOV      r0,r4
        0x08001532:    f7fffed9    ....    BL       HAL_TIMEx_BreakCallback ; 0x80012e8
        0x08001536:    6820         h      LDR      r0,[r4,#0]
        0x08001538:    6900        .i      LDR      r0,[r0,#0x10]
        0x0800153a:    f3c01080    ....    UBFX     r0,r0,#6,#1
        0x0800153e:    b158        X.      CBZ      r0,0x8001558 ; HAL_TIM_IRQHandler + 370
        0x08001540:    6820         h      LDR      r0,[r4,#0]
        0x08001542:    68c0        .h      LDR      r0,[r0,#0xc]
        0x08001544:    f3c01080    ....    UBFX     r0,r0,#6,#1
        0x08001548:    b130        0.      CBZ      r0,0x8001558 ; HAL_TIM_IRQHandler + 370
        0x0800154a:    f06f0040    o.@.    MVN      r0,#0x40
        0x0800154e:    6821        !h      LDR      r1,[r4,#0]
        0x08001550:    6108        .a      STR      r0,[r1,#0x10]
        0x08001552:    4620         F      MOV      r0,r4
        0x08001554:    f000f820    .. .    BL       HAL_TIM_TriggerCallback ; 0x8001598
        0x08001558:    6820         h      LDR      r0,[r4,#0]
        0x0800155a:    6900        .i      LDR      r0,[r0,#0x10]
        0x0800155c:    f3c01040    ..@.    UBFX     r0,r0,#5,#1
        0x08001560:    b158        X.      CBZ      r0,0x800157a ; HAL_TIM_IRQHandler + 404
        0x08001562:    6820         h      LDR      r0,[r4,#0]
        0x08001564:    68c0        .h      LDR      r0,[r0,#0xc]
        0x08001566:    f3c01040    ..@.    UBFX     r0,r0,#5,#1
        0x0800156a:    b130        0.      CBZ      r0,0x800157a ; HAL_TIM_IRQHandler + 404
        0x0800156c:    f06f0020    o. .    MVN      r0,#0x20
        0x08001570:    6821        !h      LDR      r1,[r4,#0]
        0x08001572:    6108        .a      STR      r0,[r1,#0x10]
        0x08001574:    4620         F      MOV      r0,r4
        0x08001576:    f7fffeb8    ....    BL       HAL_TIMEx_CommutCallback ; 0x80012ea
        0x0800157a:    bd10        ..      POP      {r4,pc}
    i.HAL_TIM_OC_DelayElapsedCallback
    HAL_TIM_OC_DelayElapsedCallback
        0x0800157c:    4770        pG      BX       lr
    i.HAL_TIM_PWM_PulseFinishedCallback
    HAL_TIM_PWM_PulseFinishedCallback
        0x0800157e:    4770        pG      BX       lr
    i.HAL_TIM_PeriodElapsedCallback
    HAL_TIM_PeriodElapsedCallback
        0x08001580:    b510        ..      PUSH     {r4,lr}
        0x08001582:    4604        .F      MOV      r4,r0
        0x08001584:    4903        .I      LDR      r1,[pc,#12] ; [0x8001594] = 0x40013400
        0x08001586:    6820         h      LDR      r0,[r4,#0]
        0x08001588:    4288        .B      CMP      r0,r1
        0x0800158a:    d101        ..      BNE      0x8001590 ; HAL_TIM_PeriodElapsedCallback + 16
        0x0800158c:    f7fffa2c    ..,.    BL       HAL_IncTick ; 0x80009e8
        0x08001590:    bd10        ..      POP      {r4,pc}
    $d
        0x08001592:    0000        ..      DCW    0
        0x08001594:    40013400    .4.@    DCD    1073820672
    $t
    i.HAL_TIM_TriggerCallback
    HAL_TIM_TriggerCallback
        0x08001598:    4770        pG      BX       lr
    i.HAL_UARTEx_RxEventCallback
    HAL_UARTEx_RxEventCallback
        0x0800159a:    4770        pG      BX       lr
    i.HAL_UART_ErrorCallback
    HAL_UART_ErrorCallback
        0x0800159c:    4770        pG      BX       lr
        0x0800159e:    0000        ..      MOVS     r0,r0
    i.HAL_UART_IRQHandler
    HAL_UART_IRQHandler
        0x080015a0:    e92d4ff8    -..O    PUSH     {r3-r11,lr}
        0x080015a4:    4604        .F      MOV      r4,r0
        0x080015a6:    6820         h      LDR      r0,[r4,#0]
        0x080015a8:    6805        .h      LDR      r5,[r0,#0]
        0x080015aa:    6820         h      LDR      r0,[r4,#0]
        0x080015ac:    68c6        .h      LDR      r6,[r0,#0xc]
        0x080015ae:    6820         h      LDR      r0,[r4,#0]
        0x080015b0:    6947        Gi      LDR      r7,[r0,#0x14]
        0x080015b2:    f04f0900    O...    MOV      r9,#0
        0x080015b6:    46ca        .F      MOV      r10,r9
        0x080015b8:    f005090f    ....    AND      r9,r5,#0xf
        0x080015bc:    f1b90f00    ....    CMP      r9,#0
        0x080015c0:    d10a        ..      BNE      0x80015d8 ; HAL_UART_IRQHandler + 56
        0x080015c2:    f0050020    .. .    AND      r0,r5,#0x20
        0x080015c6:    b138        8.      CBZ      r0,0x80015d8 ; HAL_UART_IRQHandler + 56
        0x080015c8:    f0060020    .. .    AND      r0,r6,#0x20
        0x080015cc:    b120         .      CBZ      r0,0x80015d8 ; HAL_UART_IRQHandler + 56
        0x080015ce:    4620         F      MOV      r0,r4
        0x080015d0:    f000fc1d    ....    BL       UART_Receive_IT ; 0x8001e0e
        0x080015d4:    e8bd8ff8    ....    POP      {r3-r11,pc}
        0x080015d8:    f1b90f00    ....    CMP      r9,#0
        0x080015dc:    d071        q.      BEQ      0x80016c2 ; HAL_UART_IRQHandler + 290
        0x080015de:    f0070001    ....    AND      r0,r7,#1
        0x080015e2:    b918        ..      CBNZ     r0,0x80015ec ; HAL_UART_IRQHandler + 76
        0x080015e4:    f4067090    ...p    AND      r0,r6,#0x120
        0x080015e8:    2800        .(      CMP      r0,#0
        0x080015ea:    d06a        j.      BEQ      0x80016c2 ; HAL_UART_IRQHandler + 290
        0x080015ec:    f0050001    ....    AND      r0,r5,#1
        0x080015f0:    b130        0.      CBZ      r0,0x8001600 ; HAL_UART_IRQHandler + 96
        0x080015f2:    f4067080    ...p    AND      r0,r6,#0x100
        0x080015f6:    b118        ..      CBZ      r0,0x8001600 ; HAL_UART_IRQHandler + 96
        0x080015f8:    6c20         l      LDR      r0,[r4,#0x40]
        0x080015fa:    f0400001    @...    ORR      r0,r0,#1
        0x080015fe:    6420         d      STR      r0,[r4,#0x40]
        0x08001600:    f0050004    ....    AND      r0,r5,#4
        0x08001604:    b130        0.      CBZ      r0,0x8001614 ; HAL_UART_IRQHandler + 116
        0x08001606:    f0070001    ....    AND      r0,r7,#1
        0x0800160a:    b118        ..      CBZ      r0,0x8001614 ; HAL_UART_IRQHandler + 116
        0x0800160c:    6c20         l      LDR      r0,[r4,#0x40]
        0x0800160e:    f0400002    @...    ORR      r0,r0,#2
        0x08001612:    6420         d      STR      r0,[r4,#0x40]
        0x08001614:    f0050002    ....    AND      r0,r5,#2
        0x08001618:    b130        0.      CBZ      r0,0x8001628 ; HAL_UART_IRQHandler + 136
        0x0800161a:    f0070001    ....    AND      r0,r7,#1
        0x0800161e:    b118        ..      CBZ      r0,0x8001628 ; HAL_UART_IRQHandler + 136
        0x08001620:    6c20         l      LDR      r0,[r4,#0x40]
        0x08001622:    f0400004    @...    ORR      r0,r0,#4
        0x08001626:    6420         d      STR      r0,[r4,#0x40]
        0x08001628:    f0050008    ....    AND      r0,r5,#8
        0x0800162c:    b148        H.      CBZ      r0,0x8001642 ; HAL_UART_IRQHandler + 162
        0x0800162e:    f0060020    .. .    AND      r0,r6,#0x20
        0x08001632:    b910        ..      CBNZ     r0,0x800163a ; HAL_UART_IRQHandler + 154
        0x08001634:    f0070001    ....    AND      r0,r7,#1
        0x08001638:    b118        ..      CBZ      r0,0x8001642 ; HAL_UART_IRQHandler + 162
        0x0800163a:    6c20         l      LDR      r0,[r4,#0x40]
        0x0800163c:    f0400008    @...    ORR      r0,r0,#8
        0x08001640:    6420         d      STR      r0,[r4,#0x40]
        0x08001642:    6c20         l      LDR      r0,[r4,#0x40]
        0x08001644:    b368        h.      CBZ      r0,0x80016a2 ; HAL_UART_IRQHandler + 258
        0x08001646:    f0050020    .. .    AND      r0,r5,#0x20
        0x0800164a:    b128        (.      CBZ      r0,0x8001658 ; HAL_UART_IRQHandler + 184
        0x0800164c:    f0060020    .. .    AND      r0,r6,#0x20
        0x08001650:    b110        ..      CBZ      r0,0x8001658 ; HAL_UART_IRQHandler + 184
        0x08001652:    4620         F      MOV      r0,r4
        0x08001654:    f000fbdb    ....    BL       UART_Receive_IT ; 0x8001e0e
        0x08001658:    6820         h      LDR      r0,[r4,#0]
        0x0800165a:    6940        @i      LDR      r0,[r0,#0x14]
        0x0800165c:    f3c01a80    ....    UBFX     r10,r0,#6,#1
        0x08001660:    6c20         l      LDR      r0,[r4,#0x40]
        0x08001662:    f0000008    ....    AND      r0,r0,#8
        0x08001666:    b910        ..      CBNZ     r0,0x800166e ; HAL_UART_IRQHandler + 206
        0x08001668:    f1ba0f00    ....    CMP      r10,#0
        0x0800166c:    d022        ".      BEQ      0x80016b4 ; HAL_UART_IRQHandler + 276
        0x0800166e:    4620         F      MOV      r0,r4
        0x08001670:    f000fba2    ....    BL       UART_EndRxTransfer ; 0x8001db8
        0x08001674:    6820         h      LDR      r0,[r4,#0]
        0x08001676:    6940        @i      LDR      r0,[r0,#0x14]
        0x08001678:    f0000040    ..@.    AND      r0,r0,#0x40
        0x0800167c:    b1b0        ..      CBZ      r0,0x80016ac ; HAL_UART_IRQHandler + 268
        0x0800167e:    6820         h      LDR      r0,[r4,#0]
        0x08001680:    6940        @i      LDR      r0,[r0,#0x14]
        0x08001682:    f0200040     .@.    BIC      r0,r0,#0x40
        0x08001686:    6821        !h      LDR      r1,[r4,#0]
        0x08001688:    6148        Ha      STR      r0,[r1,#0x14]
        0x0800168a:    6ba0        .k      LDR      r0,[r4,#0x38]
        0x0800168c:    b150        P.      CBZ      r0,0x80016a4 ; HAL_UART_IRQHandler + 260
        0x0800168e:    4856        VH      LDR      r0,[pc,#344] ; [0x80017e8] = 0x8001da5
        0x08001690:    6ba1        .k      LDR      r1,[r4,#0x38]
        0x08001692:    6348        Hc      STR      r0,[r1,#0x34]
        0x08001694:    6ba0        .k      LDR      r0,[r4,#0x38]
        0x08001696:    f7fefef3    ....    BL       HAL_DMA_Abort_IT ; 0x8000480
        0x0800169a:    b110        ..      CBZ      r0,0x80016a2 ; HAL_UART_IRQHandler + 258
        0x0800169c:    6ba0        .k      LDR      r0,[r4,#0x38]
        0x0800169e:    6b41        Ak      LDR      r1,[r0,#0x34]
        0x080016a0:    4788        .G      BLX      r1
        0x080016a2:    e00c        ..      B        0x80016be ; HAL_UART_IRQHandler + 286
        0x080016a4:    4620         F      MOV      r0,r4
        0x080016a6:    f7ffff79    ..y.    BL       HAL_UART_ErrorCallback ; 0x800159c
        0x080016aa:    e008        ..      B        0x80016be ; HAL_UART_IRQHandler + 286
        0x080016ac:    4620         F      MOV      r0,r4
        0x080016ae:    f7ffff75    ..u.    BL       HAL_UART_ErrorCallback ; 0x800159c
        0x080016b2:    e004        ..      B        0x80016be ; HAL_UART_IRQHandler + 286
        0x080016b4:    4620         F      MOV      r0,r4
        0x080016b6:    f7ffff71    ..q.    BL       HAL_UART_ErrorCallback ; 0x800159c
        0x080016ba:    2000        .       MOVS     r0,#0
        0x080016bc:    6420         d      STR      r0,[r4,#0x40]
        0x080016be:    e789        ..      B        0x80015d4 ; HAL_UART_IRQHandler + 52
        0x080016c0:    e7ff        ..      B        0x80016c2 ; HAL_UART_IRQHandler + 290
        0x080016c2:    6b20         k      LDR      r0,[r4,#0x30]
        0x080016c4:    2801        .(      CMP      r0,#1
        0x080016c6:    d178        x.      BNE      0x80017ba ; HAL_UART_IRQHandler + 538
        0x080016c8:    f0050010    ....    AND      r0,r5,#0x10
        0x080016cc:    2800        .(      CMP      r0,#0
        0x080016ce:    d074        t.      BEQ      0x80017ba ; HAL_UART_IRQHandler + 538
        0x080016d0:    f0060010    ....    AND      r0,r6,#0x10
        0x080016d4:    2800        .(      CMP      r0,#0
        0x080016d6:    d070        p.      BEQ      0x80017ba ; HAL_UART_IRQHandler + 538
        0x080016d8:    bf00        ..      NOP      
        0x080016da:    2000        .       MOVS     r0,#0
        0x080016dc:    9000        ..      STR      r0,[sp,#0]
        0x080016de:    6820         h      LDR      r0,[r4,#0]
        0x080016e0:    6800        .h      LDR      r0,[r0,#0]
        0x080016e2:    9000        ..      STR      r0,[sp,#0]
        0x080016e4:    6820         h      LDR      r0,[r4,#0]
        0x080016e6:    6840        @h      LDR      r0,[r0,#4]
        0x080016e8:    9000        ..      STR      r0,[sp,#0]
        0x080016ea:    bf00        ..      NOP      
        0x080016ec:    bf00        ..      NOP      
        0x080016ee:    6820         h      LDR      r0,[r4,#0]
        0x080016f0:    6940        @i      LDR      r0,[r0,#0x14]
        0x080016f2:    f0000040    ..@.    AND      r0,r0,#0x40
        0x080016f6:    b3c0        ..      CBZ      r0,0x800176a ; HAL_UART_IRQHandler + 458
        0x080016f8:    6ba0        .k      LDR      r0,[r4,#0x38]
        0x080016fa:    6800        .h      LDR      r0,[r0,#0]
        0x080016fc:    6840        @h      LDR      r0,[r0,#4]
        0x080016fe:    fa1ff880    ....    UXTH     r8,r0
        0x08001702:    f1b80f00    ....    CMP      r8,#0
        0x08001706:    d02f        /.      BEQ      0x8001768 ; HAL_UART_IRQHandler + 456
        0x08001708:    8da0        ..      LDRH     r0,[r4,#0x2c]
        0x0800170a:    4540        @E      CMP      r0,r8
        0x0800170c:    dd2c        ,.      BLE      0x8001768 ; HAL_UART_IRQHandler + 456
        0x0800170e:    f8a4802e    ....    STRH     r8,[r4,#0x2e]
        0x08001712:    6ba0        .k      LDR      r0,[r4,#0x38]
        0x08001714:    6980        .i      LDR      r0,[r0,#0x18]
        0x08001716:    2820         (      CMP      r0,#0x20
        0x08001718:    d01f        ..      BEQ      0x800175a ; HAL_UART_IRQHandler + 442
        0x0800171a:    6820         h      LDR      r0,[r4,#0]
        0x0800171c:    68c0        .h      LDR      r0,[r0,#0xc]
        0x0800171e:    f4207080     ..p    BIC      r0,r0,#0x100
        0x08001722:    6821        !h      LDR      r1,[r4,#0]
        0x08001724:    60c8        .`      STR      r0,[r1,#0xc]
        0x08001726:    6820         h      LDR      r0,[r4,#0]
        0x08001728:    6940        @i      LDR      r0,[r0,#0x14]
        0x0800172a:    f0200001     ...    BIC      r0,r0,#1
        0x0800172e:    6821        !h      LDR      r1,[r4,#0]
        0x08001730:    6148        Ha      STR      r0,[r1,#0x14]
        0x08001732:    6820         h      LDR      r0,[r4,#0]
        0x08001734:    6940        @i      LDR      r0,[r0,#0x14]
        0x08001736:    f0200040     .@.    BIC      r0,r0,#0x40
        0x0800173a:    6821        !h      LDR      r1,[r4,#0]
        0x0800173c:    6148        Ha      STR      r0,[r1,#0x14]
        0x0800173e:    2020                MOVS     r0,#0x20
        0x08001740:    f884003e    ..>.    STRB     r0,[r4,#0x3e]
        0x08001744:    2000        .       MOVS     r0,#0
        0x08001746:    6320         c      STR      r0,[r4,#0x30]
        0x08001748:    6820         h      LDR      r0,[r4,#0]
        0x0800174a:    68c0        .h      LDR      r0,[r0,#0xc]
        0x0800174c:    f0200010     ...    BIC      r0,r0,#0x10
        0x08001750:    6821        !h      LDR      r1,[r4,#0]
        0x08001752:    60c8        .`      STR      r0,[r1,#0xc]
        0x08001754:    6ba0        .k      LDR      r0,[r4,#0x38]
        0x08001756:    f7fefe68    ..h.    BL       HAL_DMA_Abort ; 0x800042a
        0x0800175a:    8da0        ..      LDRH     r0,[r4,#0x2c]
        0x0800175c:    8de2        ..      LDRH     r2,[r4,#0x2e]
        0x0800175e:    1a80        ..      SUBS     r0,r0,r2
        0x08001760:    b281        ..      UXTH     r1,r0
        0x08001762:    4620         F      MOV      r0,r4
        0x08001764:    f7ffff19    ....    BL       HAL_UARTEx_RxEventCallback ; 0x800159a
        0x08001768:    e734        4.      B        0x80015d4 ; HAL_UART_IRQHandler + 52
        0x0800176a:    e7ff        ..      B        0x800176c ; HAL_UART_IRQHandler + 460
        0x0800176c:    8da0        ..      LDRH     r0,[r4,#0x2c]
        0x0800176e:    8de1        ..      LDRH     r1,[r4,#0x2e]
        0x08001770:    1a40        @.      SUBS     r0,r0,r1
        0x08001772:    fa1ff880    ....    UXTH     r8,r0
        0x08001776:    8de0        ..      LDRH     r0,[r4,#0x2e]
        0x08001778:    b1e8        ..      CBZ      r0,0x80017b6 ; HAL_UART_IRQHandler + 534
        0x0800177a:    f1b80f00    ....    CMP      r8,#0
        0x0800177e:    d01a        ..      BEQ      0x80017b6 ; HAL_UART_IRQHandler + 534
        0x08001780:    6820         h      LDR      r0,[r4,#0]
        0x08001782:    68c0        .h      LDR      r0,[r0,#0xc]
        0x08001784:    f4207090     ..p    BIC      r0,r0,#0x120
        0x08001788:    6821        !h      LDR      r1,[r4,#0]
        0x0800178a:    60c8        .`      STR      r0,[r1,#0xc]
        0x0800178c:    6820         h      LDR      r0,[r4,#0]
        0x0800178e:    6940        @i      LDR      r0,[r0,#0x14]
        0x08001790:    f0200001     ...    BIC      r0,r0,#1
        0x08001794:    6821        !h      LDR      r1,[r4,#0]
        0x08001796:    6148        Ha      STR      r0,[r1,#0x14]
        0x08001798:    2020                MOVS     r0,#0x20
        0x0800179a:    f884003e    ..>.    STRB     r0,[r4,#0x3e]
        0x0800179e:    2000        .       MOVS     r0,#0
        0x080017a0:    6320         c      STR      r0,[r4,#0x30]
        0x080017a2:    6820         h      LDR      r0,[r4,#0]
        0x080017a4:    68c0        .h      LDR      r0,[r0,#0xc]
        0x080017a6:    f0200010     ...    BIC      r0,r0,#0x10
        0x080017aa:    6821        !h      LDR      r1,[r4,#0]
        0x080017ac:    60c8        .`      STR      r0,[r1,#0xc]
        0x080017ae:    4641        AF      MOV      r1,r8
        0x080017b0:    4620         F      MOV      r0,r4
        0x080017b2:    f7fffef2    ....    BL       HAL_UARTEx_RxEventCallback ; 0x800159a
        0x080017b6:    e70d        ..      B        0x80015d4 ; HAL_UART_IRQHandler + 52
        0x080017b8:    e7ff        ..      B        0x80017ba ; HAL_UART_IRQHandler + 538
        0x080017ba:    f0050080    ....    AND      r0,r5,#0x80
        0x080017be:    b130        0.      CBZ      r0,0x80017ce ; HAL_UART_IRQHandler + 558
        0x080017c0:    f0060080    ....    AND      r0,r6,#0x80
        0x080017c4:    b118        ..      CBZ      r0,0x80017ce ; HAL_UART_IRQHandler + 558
        0x080017c6:    4620         F      MOV      r0,r4
        0x080017c8:    f000fc12    ....    BL       UART_Transmit_IT ; 0x8001ff0
        0x080017cc:    e702        ..      B        0x80015d4 ; HAL_UART_IRQHandler + 52
        0x080017ce:    f0050040    ..@.    AND      r0,r5,#0x40
        0x080017d2:    b130        0.      CBZ      r0,0x80017e2 ; HAL_UART_IRQHandler + 578
        0x080017d4:    f0060040    ..@.    AND      r0,r6,#0x40
        0x080017d8:    b118        ..      CBZ      r0,0x80017e2 ; HAL_UART_IRQHandler + 578
        0x080017da:    4620         F      MOV      r0,r4
        0x080017dc:    f000fb07    ....    BL       UART_EndTransmit_IT ; 0x8001dee
        0x080017e0:    e6f8        ..      B        0x80015d4 ; HAL_UART_IRQHandler + 52
        0x080017e2:    bf00        ..      NOP      
        0x080017e4:    e6f6        ..      B        0x80015d4 ; HAL_UART_IRQHandler + 52
    $d
        0x080017e6:    0000        ..      DCW    0
        0x080017e8:    08001da5    ....    DCD    134225317
    $t
    i.HAL_UART_Init
    HAL_UART_Init
        0x080017ec:    b510        ..      PUSH     {r4,lr}
        0x080017ee:    4604        .F      MOV      r4,r0
        0x080017f0:    b90c        ..      CBNZ     r4,0x80017f6 ; HAL_UART_Init + 10
        0x080017f2:    2001        .       MOVS     r0,#1
        0x080017f4:    bd10        ..      POP      {r4,pc}
        0x080017f6:    69a0        .i      LDR      r0,[r4,#0x18]
        0x080017f8:    b100        ..      CBZ      r0,0x80017fc ; HAL_UART_Init + 16
        0x080017fa:    e000        ..      B        0x80017fe ; HAL_UART_Init + 18
        0x080017fc:    bf00        ..      NOP      
        0x080017fe:    f894003d    ..=.    LDRB     r0,[r4,#0x3d]
        0x08001802:    b928        (.      CBNZ     r0,0x8001810 ; HAL_UART_Init + 36
        0x08001804:    2000        .       MOVS     r0,#0
        0x08001806:    f884003c    ..<.    STRB     r0,[r4,#0x3c]
        0x0800180a:    4620         F      MOV      r0,r4
        0x0800180c:    f000f828    ..(.    BL       HAL_UART_MspInit ; 0x8001860
        0x08001810:    2024        $       MOVS     r0,#0x24
        0x08001812:    f884003d    ..=.    STRB     r0,[r4,#0x3d]
        0x08001816:    6820         h      LDR      r0,[r4,#0]
        0x08001818:    68c0        .h      LDR      r0,[r0,#0xc]
        0x0800181a:    f4205000     ..P    BIC      r0,r0,#0x2000
        0x0800181e:    6821        !h      LDR      r1,[r4,#0]
        0x08001820:    60c8        .`      STR      r0,[r1,#0xc]
        0x08001822:    4620         F      MOV      r0,r4
        0x08001824:    f000fb66    ..f.    BL       UART_SetConfig ; 0x8001ef4
        0x08001828:    6820         h      LDR      r0,[r4,#0]
        0x0800182a:    6900        .i      LDR      r0,[r0,#0x10]
        0x0800182c:    f4204090     ..@    BIC      r0,r0,#0x4800
        0x08001830:    6821        !h      LDR      r1,[r4,#0]
        0x08001832:    6108        .a      STR      r0,[r1,#0x10]
        0x08001834:    6820         h      LDR      r0,[r4,#0]
        0x08001836:    6940        @i      LDR      r0,[r0,#0x14]
        0x08001838:    f020002a     .*.    BIC      r0,r0,#0x2a
        0x0800183c:    6821        !h      LDR      r1,[r4,#0]
        0x0800183e:    6148        Ha      STR      r0,[r1,#0x14]
        0x08001840:    6820         h      LDR      r0,[r4,#0]
        0x08001842:    68c0        .h      LDR      r0,[r0,#0xc]
        0x08001844:    f4405000    @..P    ORR      r0,r0,#0x2000
        0x08001848:    6821        !h      LDR      r1,[r4,#0]
        0x0800184a:    60c8        .`      STR      r0,[r1,#0xc]
        0x0800184c:    2000        .       MOVS     r0,#0
        0x0800184e:    6420         d      STR      r0,[r4,#0x40]
        0x08001850:    2020                MOVS     r0,#0x20
        0x08001852:    f884003d    ..=.    STRB     r0,[r4,#0x3d]
        0x08001856:    f884003e    ..>.    STRB     r0,[r4,#0x3e]
        0x0800185a:    2000        .       MOVS     r0,#0
        0x0800185c:    e7ca        ..      B        0x80017f4 ; HAL_UART_Init + 8
        0x0800185e:    0000        ..      MOVS     r0,r0
    i.HAL_UART_MspInit
    HAL_UART_MspInit
        0x08001860:    b510        ..      PUSH     {r4,lr}
        0x08001862:    b086        ..      SUB      sp,sp,#0x18
        0x08001864:    4604        .F      MOV      r4,r0
        0x08001866:    2000        .       MOVS     r0,#0
        0x08001868:    9002        ..      STR      r0,[sp,#8]
        0x0800186a:    9003        ..      STR      r0,[sp,#0xc]
        0x0800186c:    9004        ..      STR      r0,[sp,#0x10]
        0x0800186e:    9005        ..      STR      r0,[sp,#0x14]
        0x08001870:    493e        >I      LDR      r1,[pc,#248] ; [0x800196c] = 0x40013800
        0x08001872:    6820         h      LDR      r0,[r4,#0]
        0x08001874:    4288        .B      CMP      r0,r1
        0x08001876:    d130        0.      BNE      0x80018da ; HAL_UART_MspInit + 122
        0x08001878:    bf00        ..      NOP      
        0x0800187a:    483d        =H      LDR      r0,[pc,#244] ; [0x8001970] = 0x40021000
        0x0800187c:    6980        .i      LDR      r0,[r0,#0x18]
        0x0800187e:    f4404080    @..@    ORR      r0,r0,#0x4000
        0x08001882:    493b        ;I      LDR      r1,[pc,#236] ; [0x8001970] = 0x40021000
        0x08001884:    6188        .a      STR      r0,[r1,#0x18]
        0x08001886:    4608        .F      MOV      r0,r1
        0x08001888:    6980        .i      LDR      r0,[r0,#0x18]
        0x0800188a:    f4004080    ...@    AND      r0,r0,#0x4000
        0x0800188e:    9001        ..      STR      r0,[sp,#4]
        0x08001890:    bf00        ..      NOP      
        0x08001892:    bf00        ..      NOP      
        0x08001894:    bf00        ..      NOP      
        0x08001896:    4608        .F      MOV      r0,r1
        0x08001898:    6980        .i      LDR      r0,[r0,#0x18]
        0x0800189a:    f0400004    @...    ORR      r0,r0,#4
        0x0800189e:    6188        .a      STR      r0,[r1,#0x18]
        0x080018a0:    4608        .F      MOV      r0,r1
        0x080018a2:    6980        .i      LDR      r0,[r0,#0x18]
        0x080018a4:    f0000004    ....    AND      r0,r0,#4
        0x080018a8:    9001        ..      STR      r0,[sp,#4]
        0x080018aa:    bf00        ..      NOP      
        0x080018ac:    bf00        ..      NOP      
        0x080018ae:    1548        H.      ASRS     r0,r1,#21
        0x080018b0:    9002        ..      STR      r0,[sp,#8]
        0x080018b2:    2002        .       MOVS     r0,#2
        0x080018b4:    9003        ..      STR      r0,[sp,#0xc]
        0x080018b6:    2003        .       MOVS     r0,#3
        0x080018b8:    9005        ..      STR      r0,[sp,#0x14]
        0x080018ba:    a902        ..      ADD      r1,sp,#8
        0x080018bc:    482d        -H      LDR      r0,[pc,#180] ; [0x8001974] = 0x40010800
        0x080018be:    f7fefedf    ....    BL       HAL_GPIO_Init ; 0x8000680
        0x080018c2:    f44f6080    O..`    MOV      r0,#0x400
        0x080018c6:    9002        ..      STR      r0,[sp,#8]
        0x080018c8:    2000        .       MOVS     r0,#0
        0x080018ca:    9003        ..      STR      r0,[sp,#0xc]
        0x080018cc:    2001        .       MOVS     r0,#1
        0x080018ce:    9004        ..      STR      r0,[sp,#0x10]
        0x080018d0:    a902        ..      ADD      r1,sp,#8
        0x080018d2:    4828        (H      LDR      r0,[pc,#160] ; [0x8001974] = 0x40010800
        0x080018d4:    f7fefed4    ....    BL       HAL_GPIO_Init ; 0x8000680
        0x080018d8:    e045        E.      B        0x8001966 ; HAL_UART_MspInit + 262
        0x080018da:    4927        'I      LDR      r1,[pc,#156] ; [0x8001978] = 0x40004800
        0x080018dc:    6820         h      LDR      r0,[r4,#0]
        0x080018de:    4288        .B      CMP      r0,r1
        0x080018e0:    d141        A.      BNE      0x8001966 ; HAL_UART_MspInit + 262
        0x080018e2:    bf00        ..      NOP      
        0x080018e4:    4822        "H      LDR      r0,[pc,#136] ; [0x8001970] = 0x40021000
        0x080018e6:    69c0        .i      LDR      r0,[r0,#0x1c]
        0x080018e8:    f4402080    @..     ORR      r0,r0,#0x40000
        0x080018ec:    4920         I      LDR      r1,[pc,#128] ; [0x8001970] = 0x40021000
        0x080018ee:    61c8        .a      STR      r0,[r1,#0x1c]
        0x080018f0:    4608        .F      MOV      r0,r1
        0x080018f2:    69c0        .i      LDR      r0,[r0,#0x1c]
        0x080018f4:    f4002080    ...     AND      r0,r0,#0x40000
        0x080018f8:    9001        ..      STR      r0,[sp,#4]
        0x080018fa:    bf00        ..      NOP      
        0x080018fc:    bf00        ..      NOP      
        0x080018fe:    bf00        ..      NOP      
        0x08001900:    4608        .F      MOV      r0,r1
        0x08001902:    6980        .i      LDR      r0,[r0,#0x18]
        0x08001904:    f0400020    @. .    ORR      r0,r0,#0x20
        0x08001908:    6188        .a      STR      r0,[r1,#0x18]
        0x0800190a:    4608        .F      MOV      r0,r1
        0x0800190c:    6980        .i      LDR      r0,[r0,#0x18]
        0x0800190e:    f0000020    .. .    AND      r0,r0,#0x20
        0x08001912:    9001        ..      STR      r0,[sp,#4]
        0x08001914:    bf00        ..      NOP      
        0x08001916:    bf00        ..      NOP      
        0x08001918:    1588        ..      ASRS     r0,r1,#22
        0x0800191a:    9002        ..      STR      r0,[sp,#8]
        0x0800191c:    2002        .       MOVS     r0,#2
        0x0800191e:    9003        ..      STR      r0,[sp,#0xc]
        0x08001920:    2003        .       MOVS     r0,#3
        0x08001922:    9005        ..      STR      r0,[sp,#0x14]
        0x08001924:    a902        ..      ADD      r1,sp,#8
        0x08001926:    4815        .H      LDR      r0,[pc,#84] ; [0x800197c] = 0x40011400
        0x08001928:    f7fefeaa    ....    BL       HAL_GPIO_Init ; 0x8000680
        0x0800192c:    f44f7000    O..p    MOV      r0,#0x200
        0x08001930:    9002        ..      STR      r0,[sp,#8]
        0x08001932:    2000        .       MOVS     r0,#0
        0x08001934:    9003        ..      STR      r0,[sp,#0xc]
        0x08001936:    9004        ..      STR      r0,[sp,#0x10]
        0x08001938:    a902        ..      ADD      r1,sp,#8
        0x0800193a:    4810        .H      LDR      r0,[pc,#64] ; [0x800197c] = 0x40011400
        0x0800193c:    f7fefea0    ....    BL       HAL_GPIO_Init ; 0x8000680
        0x08001940:    bf00        ..      NOP      
        0x08001942:    490f        .I      LDR      r1,[pc,#60] ; [0x8001980] = 0x40010000
        0x08001944:    6848        Hh      LDR      r0,[r1,#4]
        0x08001946:    f0200030     .0.    BIC      r0,r0,#0x30
        0x0800194a:    f04060e0    @..`    ORR      r0,r0,#0x7000000
        0x0800194e:    f0400030    @.0.    ORR      r0,r0,#0x30
        0x08001952:    6048        H`      STR      r0,[r1,#4]
        0x08001954:    bf00        ..      NOP      
        0x08001956:    2200        ."      MOVS     r2,#0
        0x08001958:    2105        .!      MOVS     r1,#5
        0x0800195a:    2027        '       MOVS     r0,#0x27
        0x0800195c:    f7fff8e8    ....    BL       HAL_NVIC_SetPriority ; 0x8000b30
        0x08001960:    2027        '       MOVS     r0,#0x27
        0x08001962:    f7fff8d5    ....    BL       HAL_NVIC_EnableIRQ ; 0x8000b10
        0x08001966:    b006        ..      ADD      sp,sp,#0x18
        0x08001968:    bd10        ..      POP      {r4,pc}
    $d
        0x0800196a:    0000        ..      DCW    0
        0x0800196c:    40013800    .8.@    DCD    1073821696
        0x08001970:    40021000    ...@    DCD    1073876992
        0x08001974:    40010800    ...@    DCD    1073809408
        0x08001978:    40004800    .H.@    DCD    1073760256
        0x0800197c:    40011400    ...@    DCD    1073812480
        0x08001980:    40010000    ...@    DCD    1073807360
    $t
    i.HAL_UART_RxCpltCallback
    HAL_UART_RxCpltCallback
        0x08001984:    4a03        .J      LDR      r2,[pc,#12] ; [0x8001994] = 0x40013800
        0x08001986:    6801        .h      LDR      r1,[r0,#0]
        0x08001988:    4291        .B      CMP      r1,r2
        0x0800198a:    d102        ..      BNE      0x8001992 ; HAL_UART_RxCpltCallback + 14
        0x0800198c:    2101        .!      MOVS     r1,#1
        0x0800198e:    4a02        .J      LDR      r2,[pc,#8] ; [0x8001998] = 0x20000015
        0x08001990:    7011        .p      STRB     r1,[r2,#0]
        0x08001992:    4770        pG      BX       lr
    $d
        0x08001994:    40013800    .8.@    DCD    1073821696
        0x08001998:    20000015    ...     DCD    536870933
    $t
    i.HAL_UART_TxCpltCallback
    HAL_UART_TxCpltCallback
        0x0800199c:    4a03        .J      LDR      r2,[pc,#12] ; [0x80019ac] = 0x40013800
        0x0800199e:    6801        .h      LDR      r1,[r0,#0]
        0x080019a0:    4291        .B      CMP      r1,r2
        0x080019a2:    d102        ..      BNE      0x80019aa ; HAL_UART_TxCpltCallback + 14
        0x080019a4:    2101        .!      MOVS     r1,#1
        0x080019a6:    4a02        .J      LDR      r2,[pc,#8] ; [0x80019b0] = 0x20000014
        0x080019a8:    7011        .p      STRB     r1,[r2,#0]
        0x080019aa:    4770        pG      BX       lr
    $d
        0x080019ac:    40013800    .8.@    DCD    1073821696
        0x080019b0:    20000014    ...     DCD    536870932
    $t
    i.KEY_GPIO_ReInit
    KEY_GPIO_ReInit
        0x080019b4:    b500        ..      PUSH     {lr}
        0x080019b6:    b085        ..      SUB      sp,sp,#0x14
        0x080019b8:    2000        .       MOVS     r0,#0
        0x080019ba:    9001        ..      STR      r0,[sp,#4]
        0x080019bc:    9002        ..      STR      r0,[sp,#8]
        0x080019be:    9003        ..      STR      r0,[sp,#0xc]
        0x080019c0:    9004        ..      STR      r0,[sp,#0x10]
        0x080019c2:    bf00        ..      NOP      
        0x080019c4:    481a        .H      LDR      r0,[pc,#104] ; [0x8001a30] = 0x40021000
        0x080019c6:    6980        .i      LDR      r0,[r0,#0x18]
        0x080019c8:    f0400040    @.@.    ORR      r0,r0,#0x40
        0x080019cc:    4918        .I      LDR      r1,[pc,#96] ; [0x8001a30] = 0x40021000
        0x080019ce:    6188        .a      STR      r0,[r1,#0x18]
        0x080019d0:    4608        .F      MOV      r0,r1
        0x080019d2:    6980        .i      LDR      r0,[r0,#0x18]
        0x080019d4:    f0000040    ..@.    AND      r0,r0,#0x40
        0x080019d8:    9000        ..      STR      r0,[sp,#0]
        0x080019da:    bf00        ..      NOP      
        0x080019dc:    bf00        ..      NOP      
        0x080019de:    bf00        ..      NOP      
        0x080019e0:    4608        .F      MOV      r0,r1
        0x080019e2:    6980        .i      LDR      r0,[r0,#0x18]
        0x080019e4:    f0400040    @.@.    ORR      r0,r0,#0x40
        0x080019e8:    6188        .a      STR      r0,[r1,#0x18]
        0x080019ea:    4608        .F      MOV      r0,r1
        0x080019ec:    6980        .i      LDR      r0,[r0,#0x18]
        0x080019ee:    f0000040    ..@.    AND      r0,r0,#0x40
        0x080019f2:    9000        ..      STR      r0,[sp,#0]
        0x080019f4:    bf00        ..      NOP      
        0x080019f6:    bf00        ..      NOP      
        0x080019f8:    480e        .H      LDR      r0,[pc,#56] ; [0x8001a34] = 0x10310000
        0x080019fa:    9002        ..      STR      r0,[sp,#8]
        0x080019fc:    2001        .       MOVS     r0,#1
        0x080019fe:    9003        ..      STR      r0,[sp,#0xc]
        0x08001a00:    0380        ..      LSLS     r0,r0,#14
        0x08001a02:    9001        ..      STR      r0,[sp,#4]
        0x08001a04:    a901        ..      ADD      r1,sp,#4
        0x08001a06:    480c        .H      LDR      r0,[pc,#48] ; [0x8001a38] = 0x40011800
        0x08001a08:    f7fefe3a    ..:.    BL       HAL_GPIO_Init ; 0x8000680
        0x08001a0c:    f44f4000    O..@    MOV      r0,#0x8000
        0x08001a10:    9001        ..      STR      r0,[sp,#4]
        0x08001a12:    a901        ..      ADD      r1,sp,#4
        0x08001a14:    4808        .H      LDR      r0,[pc,#32] ; [0x8001a38] = 0x40011800
        0x08001a16:    f7fefe33    ..3.    BL       HAL_GPIO_Init ; 0x8000680
        0x08001a1a:    2202        ."      MOVS     r2,#2
        0x08001a1c:    2100        .!      MOVS     r1,#0
        0x08001a1e:    2028        (       MOVS     r0,#0x28
        0x08001a20:    f7fff886    ....    BL       HAL_NVIC_SetPriority ; 0x8000b30
        0x08001a24:    2028        (       MOVS     r0,#0x28
        0x08001a26:    f7fff873    ..s.    BL       HAL_NVIC_EnableIRQ ; 0x8000b10
        0x08001a2a:    b005        ..      ADD      sp,sp,#0x14
        0x08001a2c:    bd00        ..      POP      {pc}
    $d
        0x08001a2e:    0000        ..      DCW    0
        0x08001a30:    40021000    ...@    DCD    1073876992
        0x08001a34:    10310000    ..1.    DCD    271646720
        0x08001a38:    40011800    ...@    DCD    1073813504
    $t
    i.MX_FREERTOS_Init
    MX_FREERTOS_Init
        0x08001a3c:    b510        ..      PUSH     {r4,lr}
        0x08001a3e:    4a04        .J      LDR      r2,[pc,#16] ; [0x8001a50] = 0x80046c8
        0x08001a40:    2100        .!      MOVS     r1,#0
        0x08001a42:    4804        .H      LDR      r0,[pc,#16] ; [0x8001a54] = 0x8001c1d
        0x08001a44:    f000fe2c    ..,.    BL       osThreadNew ; 0x80026a0
        0x08001a48:    4903        .I      LDR      r1,[pc,#12] ; [0x8001a58] = 0x20000000
        0x08001a4a:    6008        .`      STR      r0,[r1,#0]
        0x08001a4c:    bd10        ..      POP      {r4,pc}
    $d
        0x08001a4e:    0000        ..      DCW    0
        0x08001a50:    080046c8    .F..    DCD    134235848
        0x08001a54:    08001c1d    ....    DCD    134224925
        0x08001a58:    20000000    ...     DCD    536870912
    $t
    i.MX_GPIO_Init
    MX_GPIO_Init
        0x08001a5c:    b500        ..      PUSH     {lr}
        0x08001a5e:    b085        ..      SUB      sp,sp,#0x14
        0x08001a60:    2000        .       MOVS     r0,#0
        0x08001a62:    9001        ..      STR      r0,[sp,#4]
        0x08001a64:    9002        ..      STR      r0,[sp,#8]
        0x08001a66:    9003        ..      STR      r0,[sp,#0xc]
        0x08001a68:    9004        ..      STR      r0,[sp,#0x10]
        0x08001a6a:    bf00        ..      NOP      
        0x08001a6c:    483f        ?H      LDR      r0,[pc,#252] ; [0x8001b6c] = 0x40021000
        0x08001a6e:    6980        .i      LDR      r0,[r0,#0x18]
        0x08001a70:    f0400040    @.@.    ORR      r0,r0,#0x40
        0x08001a74:    493d        =I      LDR      r1,[pc,#244] ; [0x8001b6c] = 0x40021000
        0x08001a76:    6188        .a      STR      r0,[r1,#0x18]
        0x08001a78:    4608        .F      MOV      r0,r1
        0x08001a7a:    6980        .i      LDR      r0,[r0,#0x18]
        0x08001a7c:    f0000040    ..@.    AND      r0,r0,#0x40
        0x08001a80:    9000        ..      STR      r0,[sp,#0]
        0x08001a82:    bf00        ..      NOP      
        0x08001a84:    bf00        ..      NOP      
        0x08001a86:    bf00        ..      NOP      
        0x08001a88:    4608        .F      MOV      r0,r1
        0x08001a8a:    6980        .i      LDR      r0,[r0,#0x18]
        0x08001a8c:    f0400010    @...    ORR      r0,r0,#0x10
        0x08001a90:    6188        .a      STR      r0,[r1,#0x18]
        0x08001a92:    4608        .F      MOV      r0,r1
        0x08001a94:    6980        .i      LDR      r0,[r0,#0x18]
        0x08001a96:    f0000010    ....    AND      r0,r0,#0x10
        0x08001a9a:    9000        ..      STR      r0,[sp,#0]
        0x08001a9c:    bf00        ..      NOP      
        0x08001a9e:    bf00        ..      NOP      
        0x08001aa0:    bf00        ..      NOP      
        0x08001aa2:    4608        .F      MOV      r0,r1
        0x08001aa4:    6980        .i      LDR      r0,[r0,#0x18]
        0x08001aa6:    f0400080    @...    ORR      r0,r0,#0x80
        0x08001aaa:    6188        .a      STR      r0,[r1,#0x18]
        0x08001aac:    4608        .F      MOV      r0,r1
        0x08001aae:    6980        .i      LDR      r0,[r0,#0x18]
        0x08001ab0:    f0000080    ....    AND      r0,r0,#0x80
        0x08001ab4:    9000        ..      STR      r0,[sp,#0]
        0x08001ab6:    bf00        ..      NOP      
        0x08001ab8:    bf00        ..      NOP      
        0x08001aba:    bf00        ..      NOP      
        0x08001abc:    4608        .F      MOV      r0,r1
        0x08001abe:    6980        .i      LDR      r0,[r0,#0x18]
        0x08001ac0:    f0400020    @. .    ORR      r0,r0,#0x20
        0x08001ac4:    6188        .a      STR      r0,[r1,#0x18]
        0x08001ac6:    4608        .F      MOV      r0,r1
        0x08001ac8:    6980        .i      LDR      r0,[r0,#0x18]
        0x08001aca:    f0000020    .. .    AND      r0,r0,#0x20
        0x08001ace:    9000        ..      STR      r0,[sp,#0]
        0x08001ad0:    bf00        ..      NOP      
        0x08001ad2:    bf00        ..      NOP      
        0x08001ad4:    bf00        ..      NOP      
        0x08001ad6:    4608        .F      MOV      r0,r1
        0x08001ad8:    6980        .i      LDR      r0,[r0,#0x18]
        0x08001ada:    f0400004    @...    ORR      r0,r0,#4
        0x08001ade:    6188        .a      STR      r0,[r1,#0x18]
        0x08001ae0:    4608        .F      MOV      r0,r1
        0x08001ae2:    6980        .i      LDR      r0,[r0,#0x18]
        0x08001ae4:    f0000004    ....    AND      r0,r0,#4
        0x08001ae8:    9000        ..      STR      r0,[sp,#0]
        0x08001aea:    bf00        ..      NOP      
        0x08001aec:    bf00        ..      NOP      
        0x08001aee:    2201        ."      MOVS     r2,#1
        0x08001af0:    2140        @!      MOVS     r1,#0x40
        0x08001af2:    481f        .H      LDR      r0,[pc,#124] ; [0x8001b70] = 0x40011800
        0x08001af4:    f7feff6c    ..l.    BL       HAL_GPIO_WritePin ; 0x80009d0
        0x08001af8:    2201        ."      MOVS     r2,#1
        0x08001afa:    f44f6178    O.xa    MOV      r1,#0xf80
        0x08001afe:    481d        .H      LDR      r0,[pc,#116] ; [0x8001b74] = 0x40011c00
        0x08001b00:    f7feff66    ..f.    BL       HAL_GPIO_WritePin ; 0x80009d0
        0x08001b04:    2201        ."      MOVS     r2,#1
        0x08001b06:    2140        @!      MOVS     r1,#0x40
        0x08001b08:    481b        .H      LDR      r0,[pc,#108] ; [0x8001b78] = 0x40011000
        0x08001b0a:    f7feff61    ..a.    BL       HAL_GPIO_WritePin ; 0x80009d0
        0x08001b0e:    2040        @       MOVS     r0,#0x40
        0x08001b10:    9001        ..      STR      r0,[sp,#4]
        0x08001b12:    2001        .       MOVS     r0,#1
        0x08001b14:    9002        ..      STR      r0,[sp,#8]
        0x08001b16:    9003        ..      STR      r0,[sp,#0xc]
        0x08001b18:    2003        .       MOVS     r0,#3
        0x08001b1a:    9004        ..      STR      r0,[sp,#0x10]
        0x08001b1c:    a901        ..      ADD      r1,sp,#4
        0x08001b1e:    4814        .H      LDR      r0,[pc,#80] ; [0x8001b70] = 0x40011800
        0x08001b20:    f7fefdae    ....    BL       HAL_GPIO_Init ; 0x8000680
        0x08001b24:    f44f6078    O.x`    MOV      r0,#0xf80
        0x08001b28:    9001        ..      STR      r0,[sp,#4]
        0x08001b2a:    2001        .       MOVS     r0,#1
        0x08001b2c:    9002        ..      STR      r0,[sp,#8]
        0x08001b2e:    9003        ..      STR      r0,[sp,#0xc]
        0x08001b30:    2003        .       MOVS     r0,#3
        0x08001b32:    9004        ..      STR      r0,[sp,#0x10]
        0x08001b34:    a901        ..      ADD      r1,sp,#4
        0x08001b36:    480f        .H      LDR      r0,[pc,#60] ; [0x8001b74] = 0x40011c00
        0x08001b38:    f7fefda2    ....    BL       HAL_GPIO_Init ; 0x8000680
        0x08001b3c:    f44f4040    O.@@    MOV      r0,#0xc000
        0x08001b40:    9001        ..      STR      r0,[sp,#4]
        0x08001b42:    2000        .       MOVS     r0,#0
        0x08001b44:    9002        ..      STR      r0,[sp,#8]
        0x08001b46:    2001        .       MOVS     r0,#1
        0x08001b48:    9003        ..      STR      r0,[sp,#0xc]
        0x08001b4a:    a901        ..      ADD      r1,sp,#4
        0x08001b4c:    4808        .H      LDR      r0,[pc,#32] ; [0x8001b70] = 0x40011800
        0x08001b4e:    f7fefd97    ....    BL       HAL_GPIO_Init ; 0x8000680
        0x08001b52:    2040        @       MOVS     r0,#0x40
        0x08001b54:    9001        ..      STR      r0,[sp,#4]
        0x08001b56:    2001        .       MOVS     r0,#1
        0x08001b58:    9002        ..      STR      r0,[sp,#8]
        0x08001b5a:    9003        ..      STR      r0,[sp,#0xc]
        0x08001b5c:    2003        .       MOVS     r0,#3
        0x08001b5e:    9004        ..      STR      r0,[sp,#0x10]
        0x08001b60:    a901        ..      ADD      r1,sp,#4
        0x08001b62:    4805        .H      LDR      r0,[pc,#20] ; [0x8001b78] = 0x40011000
        0x08001b64:    f7fefd8c    ....    BL       HAL_GPIO_Init ; 0x8000680
        0x08001b68:    b005        ..      ADD      sp,sp,#0x14
        0x08001b6a:    bd00        ..      POP      {pc}
    $d
        0x08001b6c:    40021000    ...@    DCD    1073876992
        0x08001b70:    40011800    ...@    DCD    1073813504
        0x08001b74:    40011c00    ...@    DCD    1073814528
        0x08001b78:    40011000    ...@    DCD    1073811456
    $t
    i.MX_USART1_UART_Init
    MX_USART1_UART_Init
        0x08001b7c:    b510        ..      PUSH     {r4,lr}
        0x08001b7e:    480b        .H      LDR      r0,[pc,#44] ; [0x8001bac] = 0x40013800
        0x08001b80:    490b        .I      LDR      r1,[pc,#44] ; [0x8001bb0] = 0x200004a0
        0x08001b82:    6008        .`      STR      r0,[r1,#0]
        0x08001b84:    f44f30e1    O..0    MOV      r0,#0x1c200
        0x08001b88:    6048        H`      STR      r0,[r1,#4]
        0x08001b8a:    2100        .!      MOVS     r1,#0
        0x08001b8c:    4808        .H      LDR      r0,[pc,#32] ; [0x8001bb0] = 0x200004a0
        0x08001b8e:    6081        .`      STR      r1,[r0,#8]
        0x08001b90:    60c1        .`      STR      r1,[r0,#0xc]
        0x08001b92:    6101        .a      STR      r1,[r0,#0x10]
        0x08001b94:    210c        .!      MOVS     r1,#0xc
        0x08001b96:    6141        Aa      STR      r1,[r0,#0x14]
        0x08001b98:    2100        .!      MOVS     r1,#0
        0x08001b9a:    6181        .a      STR      r1,[r0,#0x18]
        0x08001b9c:    61c1        .a      STR      r1,[r0,#0x1c]
        0x08001b9e:    f7fffe25    ..%.    BL       HAL_UART_Init ; 0x80017ec
        0x08001ba2:    b108        ..      CBZ      r0,0x8001ba8 ; MX_USART1_UART_Init + 44
        0x08001ba4:    f7fefc3e    ..>.    BL       Error_Handler ; 0x8000424
        0x08001ba8:    bd10        ..      POP      {r4,pc}
    $d
        0x08001baa:    0000        ..      DCW    0
        0x08001bac:    40013800    .8.@    DCD    1073821696
        0x08001bb0:    200004a0    ...     DCD    536872096
    $t
    i.MX_USART3_UART_Init
    MX_USART3_UART_Init
        0x08001bb4:    b510        ..      PUSH     {r4,lr}
        0x08001bb6:    480b        .H      LDR      r0,[pc,#44] ; [0x8001be4] = 0x40004800
        0x08001bb8:    490b        .I      LDR      r1,[pc,#44] ; [0x8001be8] = 0x200004e4
        0x08001bba:    6008        .`      STR      r0,[r1,#0]
        0x08001bbc:    f44f30e1    O..0    MOV      r0,#0x1c200
        0x08001bc0:    6048        H`      STR      r0,[r1,#4]
        0x08001bc2:    2100        .!      MOVS     r1,#0
        0x08001bc4:    4808        .H      LDR      r0,[pc,#32] ; [0x8001be8] = 0x200004e4
        0x08001bc6:    6081        .`      STR      r1,[r0,#8]
        0x08001bc8:    60c1        .`      STR      r1,[r0,#0xc]
        0x08001bca:    6101        .a      STR      r1,[r0,#0x10]
        0x08001bcc:    210c        .!      MOVS     r1,#0xc
        0x08001bce:    6141        Aa      STR      r1,[r0,#0x14]
        0x08001bd0:    2100        .!      MOVS     r1,#0
        0x08001bd2:    6181        .a      STR      r1,[r0,#0x18]
        0x08001bd4:    61c1        .a      STR      r1,[r0,#0x1c]
        0x08001bd6:    f7fffe09    ....    BL       HAL_UART_Init ; 0x80017ec
        0x08001bda:    b108        ..      CBZ      r0,0x8001be0 ; MX_USART3_UART_Init + 44
        0x08001bdc:    f7fefc22    ..".    BL       Error_Handler ; 0x8000424
        0x08001be0:    bd10        ..      POP      {r4,pc}
    $d
        0x08001be2:    0000        ..      DCW    0
        0x08001be4:    40004800    .H.@    DCD    1073760256
        0x08001be8:    200004e4    ...     DCD    536872164
    $t
    i.MemManage_Handler
    MemManage_Handler
        0x08001bec:    bf00        ..      NOP      
        0x08001bee:    e7fe        ..      B        0x8001bee ; MemManage_Handler + 2
    i.NMI_Handler
    NMI_Handler
        0x08001bf0:    bf00        ..      NOP      
        0x08001bf2:    e7fe        ..      B        0x8001bf2 ; NMI_Handler + 2
    i.RCC_Delay
    RCC_Delay
        0x08001bf4:    b508        ..      PUSH     {r3,lr}
        0x08001bf6:    4908        .I      LDR      r1,[pc,#32] ; [0x8001c18] = 0x20000010
        0x08001bf8:    6809        .h      LDR      r1,[r1,#0]
        0x08001bfa:    08c9        ..      LSRS     r1,r1,#3
        0x08001bfc:    f44f727a    O.zr    MOV      r2,#0x3e8
        0x08001c00:    fbb1f1f2    ....    UDIV     r1,r1,r2
        0x08001c04:    4341        AC      MULS     r1,r0,r1
        0x08001c06:    9100        ..      STR      r1,[sp,#0]
        0x08001c08:    bf00        ..      NOP      
        0x08001c0a:    bf00        ..      NOP      
        0x08001c0c:    9900        ..      LDR      r1,[sp,#0]
        0x08001c0e:    1e4a        J.      SUBS     r2,r1,#1
        0x08001c10:    9200        ..      STR      r2,[sp,#0]
        0x08001c12:    2900        .)      CMP      r1,#0
        0x08001c14:    d1f9        ..      BNE      0x8001c0a ; RCC_Delay + 22
        0x08001c16:    bd08        ..      POP      {r3,pc}
    $d
        0x08001c18:    20000010    ...     DCD    536870928
    $t
    i.StartDefaultTask
    StartDefaultTask
        0x08001c1c:    a003        ..      ADR      r0,{pc}+0x10 ; 0x8001c2c
        0x08001c1e:    f000fa3b    ..;.    BL       __0printf$8 ; 0x8002098
        0x08001c22:    bf00        ..      NOP      
        0x08001c24:    2001        .       MOVS     r0,#1
        0x08001c26:    f000fcdd    ....    BL       osDelay ; 0x80025e4
        0x08001c2a:    e7fb        ..      B        0x8001c24 ; StartDefaultTask + 8
    $d
        0x08001c2c:    72617453    Star    DCD    1918989395
        0x08001c30:    66654474    tDef    DCD    1717912692
        0x08001c34:    746c7561    ault    DCD    1953264993
        0x08001c38:    6b736154    Task    DCD    1802723668
        0x08001c3c:    00000a0d    ....    DCD    2573
    $t
    i.SysTick_Handler
    SysTick_Handler
        0x08001c40:    b510        ..      PUSH     {r4,lr}
        0x08001c42:    bf00        ..      NOP      
        0x08001c44:    2050        P       MOVS     r0,#0x50
        0x08001c46:    f3808811    ....    MSR      BASEPRI,r0
        0x08001c4a:    f3bf8f4f    ..O.    DSB      
        0x08001c4e:    f3bf8f6f    ..o.    ISB      
        0x08001c52:    bf00        ..      NOP      
        0x08001c54:    f002faf8    ....    BL       xTaskIncrementTick ; 0x8004248
        0x08001c58:    b118        ..      CBZ      r0,0x8001c62 ; SysTick_Handler + 34
        0x08001c5a:    f04f5080    O..P    MOV      r0,#0x10000000
        0x08001c5e:    4904        .I      LDR      r1,[pc,#16] ; [0x8001c70] = 0xe000ed04
        0x08001c60:    6008        .`      STR      r0,[r1,#0]
        0x08001c62:    bf00        ..      NOP      
        0x08001c64:    2000        .       MOVS     r0,#0
        0x08001c66:    f3808811    ....    MSR      BASEPRI,r0
        0x08001c6a:    bf00        ..      NOP      
        0x08001c6c:    bd10        ..      POP      {r4,pc}
    $d
        0x08001c6e:    0000        ..      DCW    0
        0x08001c70:    e000ed04    ....    DCD    3758157060
    $t
    i.SystemClock_Config
    SystemClock_Config
        0x08001c74:    b500        ..      PUSH     {lr}
        0x08001c76:    b08f        ..      SUB      sp,sp,#0x3c
        0x08001c78:    2128        (!      MOVS     r1,#0x28
        0x08001c7a:    a805        ..      ADD      r0,sp,#0x14
        0x08001c7c:    f7fefb05    ....    BL       __aeabi_memclr ; 0x800028a
        0x08001c80:    2114        .!      MOVS     r1,#0x14
        0x08001c82:    4668        hF      MOV      r0,sp
        0x08001c84:    f7fefb01    ....    BL       __aeabi_memclr ; 0x800028a
        0x08001c88:    2001        .       MOVS     r0,#1
        0x08001c8a:    9005        ..      STR      r0,[sp,#0x14]
        0x08001c8c:    0400        ..      LSLS     r0,r0,#16
        0x08001c8e:    9006        ..      STR      r0,[sp,#0x18]
        0x08001c90:    2000        .       MOVS     r0,#0
        0x08001c92:    9007        ..      STR      r0,[sp,#0x1c]
        0x08001c94:    2001        .       MOVS     r0,#1
        0x08001c96:    9009        ..      STR      r0,[sp,#0x24]
        0x08001c98:    2002        .       MOVS     r0,#2
        0x08001c9a:    900c        ..      STR      r0,[sp,#0x30]
        0x08001c9c:    03c1        ..      LSLS     r1,r0,#15
        0x08001c9e:    910d        ..      STR      r1,[sp,#0x34]
        0x08001ca0:    f44f11e0    O...    MOV      r1,#0x1c0000
        0x08001ca4:    910e        ..      STR      r1,[sp,#0x38]
        0x08001ca6:    a805        ..      ADD      r0,sp,#0x14
        0x08001ca8:    f7fff8ec    ....    BL       HAL_RCC_OscConfig ; 0x8000e84
        0x08001cac:    b108        ..      CBZ      r0,0x8001cb2 ; SystemClock_Config + 62
        0x08001cae:    f7fefbb9    ....    BL       Error_Handler ; 0x8000424
        0x08001cb2:    200f        .       MOVS     r0,#0xf
        0x08001cb4:    9000        ..      STR      r0,[sp,#0]
        0x08001cb6:    2002        .       MOVS     r0,#2
        0x08001cb8:    9001        ..      STR      r0,[sp,#4]
        0x08001cba:    2000        .       MOVS     r0,#0
        0x08001cbc:    9002        ..      STR      r0,[sp,#8]
        0x08001cbe:    f44f6080    O..`    MOV      r0,#0x400
        0x08001cc2:    9003        ..      STR      r0,[sp,#0xc]
        0x08001cc4:    2000        .       MOVS     r0,#0
        0x08001cc6:    9004        ..      STR      r0,[sp,#0x10]
        0x08001cc8:    2102        .!      MOVS     r1,#2
        0x08001cca:    4668        hF      MOV      r0,sp
        0x08001ccc:    f7feff82    ....    BL       HAL_RCC_ClockConfig ; 0x8000bd4
        0x08001cd0:    b108        ..      CBZ      r0,0x8001cd6 ; SystemClock_Config + 98
        0x08001cd2:    f7fefba7    ....    BL       Error_Handler ; 0x8000424
        0x08001cd6:    b00f        ..      ADD      sp,sp,#0x3c
        0x08001cd8:    bd00        ..      POP      {pc}
    i.SystemInit
    SystemInit
        0x08001cda:    4770        pG      BX       lr
    i.TIM8_UP_IRQHandler
    TIM8_UP_IRQHandler
        0x08001cdc:    b510        ..      PUSH     {r4,lr}
        0x08001cde:    4802        .H      LDR      r0,[pc,#8] ; [0x8001ce8] = 0x20000528
        0x08001ce0:    f7fffb81    ....    BL       HAL_TIM_IRQHandler ; 0x80013e6
        0x08001ce4:    bd10        ..      POP      {r4,pc}
    $d
        0x08001ce6:    0000        ..      DCW    0
        0x08001ce8:    20000528    (..     DCD    536872232
    $t
    i.TIM_Base_SetConfig
    TIM_Base_SetConfig
        0x08001cec:    b510        ..      PUSH     {r4,lr}
        0x08001cee:    6802        .h      LDR      r2,[r0,#0]
        0x08001cf0:    4b20         K      LDR      r3,[pc,#128] ; [0x8001d74] = 0x40012c00
        0x08001cf2:    4298        .B      CMP      r0,r3
        0x08001cf4:    d00e        ..      BEQ      0x8001d14 ; TIM_Base_SetConfig + 40
        0x08001cf6:    4b20         K      LDR      r3,[pc,#128] ; [0x8001d78] = 0x40013400
        0x08001cf8:    4298        .B      CMP      r0,r3
        0x08001cfa:    d00b        ..      BEQ      0x8001d14 ; TIM_Base_SetConfig + 40
        0x08001cfc:    f1b04f80    ...O    CMP      r0,#0x40000000
        0x08001d00:    d008        ..      BEQ      0x8001d14 ; TIM_Base_SetConfig + 40
        0x08001d02:    4b1e        .K      LDR      r3,[pc,#120] ; [0x8001d7c] = 0x40000400
        0x08001d04:    4298        .B      CMP      r0,r3
        0x08001d06:    d005        ..      BEQ      0x8001d14 ; TIM_Base_SetConfig + 40
        0x08001d08:    4b1d        .K      LDR      r3,[pc,#116] ; [0x8001d80] = 0x40000800
        0x08001d0a:    4298        .B      CMP      r0,r3
        0x08001d0c:    d002        ..      BEQ      0x8001d14 ; TIM_Base_SetConfig + 40
        0x08001d0e:    4b1d        .K      LDR      r3,[pc,#116] ; [0x8001d84] = 0x40000c00
        0x08001d10:    4298        .B      CMP      r0,r3
        0x08001d12:    d103        ..      BNE      0x8001d1c ; TIM_Base_SetConfig + 48
        0x08001d14:    f0220270    ".p.    BIC      r2,r2,#0x70
        0x08001d18:    684b        Kh      LDR      r3,[r1,#4]
        0x08001d1a:    431a        .C      ORRS     r2,r2,r3
        0x08001d1c:    4b15        .K      LDR      r3,[pc,#84] ; [0x8001d74] = 0x40012c00
        0x08001d1e:    4298        .B      CMP      r0,r3
        0x08001d20:    d00e        ..      BEQ      0x8001d40 ; TIM_Base_SetConfig + 84
        0x08001d22:    4b15        .K      LDR      r3,[pc,#84] ; [0x8001d78] = 0x40013400
        0x08001d24:    4298        .B      CMP      r0,r3
        0x08001d26:    d00b        ..      BEQ      0x8001d40 ; TIM_Base_SetConfig + 84
        0x08001d28:    f1b04f80    ...O    CMP      r0,#0x40000000
        0x08001d2c:    d008        ..      BEQ      0x8001d40 ; TIM_Base_SetConfig + 84
        0x08001d2e:    4b13        .K      LDR      r3,[pc,#76] ; [0x8001d7c] = 0x40000400
        0x08001d30:    4298        .B      CMP      r0,r3
        0x08001d32:    d005        ..      BEQ      0x8001d40 ; TIM_Base_SetConfig + 84
        0x08001d34:    4b12        .K      LDR      r3,[pc,#72] ; [0x8001d80] = 0x40000800
        0x08001d36:    4298        .B      CMP      r0,r3
        0x08001d38:    d002        ..      BEQ      0x8001d40 ; TIM_Base_SetConfig + 84
        0x08001d3a:    4b12        .K      LDR      r3,[pc,#72] ; [0x8001d84] = 0x40000c00
        0x08001d3c:    4298        .B      CMP      r0,r3
        0x08001d3e:    d103        ..      BNE      0x8001d48 ; TIM_Base_SetConfig + 92
        0x08001d40:    f4227240    ".@r    BIC      r2,r2,#0x300
        0x08001d44:    68cb        .h      LDR      r3,[r1,#0xc]
        0x08001d46:    431a        .C      ORRS     r2,r2,r3
        0x08001d48:    f0220380    "...    BIC      r3,r2,#0x80
        0x08001d4c:    694c        Li      LDR      r4,[r1,#0x14]
        0x08001d4e:    ea430204    C...    ORR      r2,r3,r4
        0x08001d52:    6002        .`      STR      r2,[r0,#0]
        0x08001d54:    688b        .h      LDR      r3,[r1,#8]
        0x08001d56:    62c3        .b      STR      r3,[r0,#0x2c]
        0x08001d58:    680b        .h      LDR      r3,[r1,#0]
        0x08001d5a:    6283        .b      STR      r3,[r0,#0x28]
        0x08001d5c:    4b05        .K      LDR      r3,[pc,#20] ; [0x8001d74] = 0x40012c00
        0x08001d5e:    4298        .B      CMP      r0,r3
        0x08001d60:    d002        ..      BEQ      0x8001d68 ; TIM_Base_SetConfig + 124
        0x08001d62:    4b05        .K      LDR      r3,[pc,#20] ; [0x8001d78] = 0x40013400
        0x08001d64:    4298        .B      CMP      r0,r3
        0x08001d66:    d101        ..      BNE      0x8001d6c ; TIM_Base_SetConfig + 128
        0x08001d68:    690b        .i      LDR      r3,[r1,#0x10]
        0x08001d6a:    6303        .c      STR      r3,[r0,#0x30]
        0x08001d6c:    2301        .#      MOVS     r3,#1
        0x08001d6e:    6143        Ca      STR      r3,[r0,#0x14]
        0x08001d70:    bd10        ..      POP      {r4,pc}
    $d
        0x08001d72:    0000        ..      DCW    0
        0x08001d74:    40012c00    .,.@    DCD    1073818624
        0x08001d78:    40013400    .4.@    DCD    1073820672
        0x08001d7c:    40000400    ...@    DCD    1073742848
        0x08001d80:    40000800    ...@    DCD    1073743872
        0x08001d84:    40000c00    ...@    DCD    1073744896
    $t
    i.TestDebug
    TestDebug
        0x08001d88:    b510        ..      PUSH     {r4,lr}
        0x08001d8a:    4c05        .L      LDR      r4,[pc,#20] ; [0x8001da0] = 0xe000ed14
        0x08001d8c:    6820         h      LDR      r0,[r4,#0]
        0x08001d8e:    f0400010    @...    ORR      r0,r0,#0x10
        0x08001d92:    6020         `      STR      r0,[r4,#0]
        0x08001d94:    f7fefad8    ....    BL       A ; 0x8000348
        0x08001d98:    f7fefb0c    ....    BL       D ; 0x80003b4
        0x08001d9c:    bd10        ..      POP      {r4,pc}
    $d
        0x08001d9e:    0000        ..      DCW    0
        0x08001da0:    e000ed14    ....    DCD    3758157076
    $t
    i.UART_DMAAbortOnError
    UART_DMAAbortOnError
        0x08001da4:    b570        p.      PUSH     {r4-r6,lr}
        0x08001da6:    4605        .F      MOV      r5,r0
        0x08001da8:    6a6c        lj      LDR      r4,[r5,#0x24]
        0x08001daa:    2000        .       MOVS     r0,#0
        0x08001dac:    85e0        ..      STRH     r0,[r4,#0x2e]
        0x08001dae:    84e0        ..      STRH     r0,[r4,#0x26]
        0x08001db0:    4620         F      MOV      r0,r4
        0x08001db2:    f7fffbf3    ....    BL       HAL_UART_ErrorCallback ; 0x800159c
        0x08001db6:    bd70        p.      POP      {r4-r6,pc}
    i.UART_EndRxTransfer
    UART_EndRxTransfer
        0x08001db8:    6801        .h      LDR      r1,[r0,#0]
        0x08001dba:    68c9        .h      LDR      r1,[r1,#0xc]
        0x08001dbc:    f4217190    !..q    BIC      r1,r1,#0x120
        0x08001dc0:    6802        .h      LDR      r2,[r0,#0]
        0x08001dc2:    60d1        .`      STR      r1,[r2,#0xc]
        0x08001dc4:    6801        .h      LDR      r1,[r0,#0]
        0x08001dc6:    6949        Ii      LDR      r1,[r1,#0x14]
        0x08001dc8:    f0210101    !...    BIC      r1,r1,#1
        0x08001dcc:    6802        .h      LDR      r2,[r0,#0]
        0x08001dce:    6151        Qa      STR      r1,[r2,#0x14]
        0x08001dd0:    6b01        .k      LDR      r1,[r0,#0x30]
        0x08001dd2:    2901        .)      CMP      r1,#1
        0x08001dd4:    d105        ..      BNE      0x8001de2 ; UART_EndRxTransfer + 42
        0x08001dd6:    6801        .h      LDR      r1,[r0,#0]
        0x08001dd8:    68c9        .h      LDR      r1,[r1,#0xc]
        0x08001dda:    f0210110    !...    BIC      r1,r1,#0x10
        0x08001dde:    6802        .h      LDR      r2,[r0,#0]
        0x08001de0:    60d1        .`      STR      r1,[r2,#0xc]
        0x08001de2:    2120         !      MOVS     r1,#0x20
        0x08001de4:    f880103e    ..>.    STRB     r1,[r0,#0x3e]
        0x08001de8:    2100        .!      MOVS     r1,#0
        0x08001dea:    6301        .c      STR      r1,[r0,#0x30]
        0x08001dec:    4770        pG      BX       lr
    i.UART_EndTransmit_IT
    UART_EndTransmit_IT
        0x08001dee:    b510        ..      PUSH     {r4,lr}
        0x08001df0:    4604        .F      MOV      r4,r0
        0x08001df2:    6820         h      LDR      r0,[r4,#0]
        0x08001df4:    68c0        .h      LDR      r0,[r0,#0xc]
        0x08001df6:    f0200040     .@.    BIC      r0,r0,#0x40
        0x08001dfa:    6821        !h      LDR      r1,[r4,#0]
        0x08001dfc:    60c8        .`      STR      r0,[r1,#0xc]
        0x08001dfe:    2020                MOVS     r0,#0x20
        0x08001e00:    f884003d    ..=.    STRB     r0,[r4,#0x3d]
        0x08001e04:    4620         F      MOV      r0,r4
        0x08001e06:    f7fffdc9    ....    BL       HAL_UART_TxCpltCallback ; 0x800199c
        0x08001e0a:    2000        .       MOVS     r0,#0
        0x08001e0c:    bd10        ..      POP      {r4,pc}
    i.UART_Receive_IT
    UART_Receive_IT
        0x08001e0e:    b5f8        ..      PUSH     {r3-r7,lr}
        0x08001e10:    4604        .F      MOV      r4,r0
        0x08001e12:    f894003e    ..>.    LDRB     r0,[r4,#0x3e]
        0x08001e16:    2822        "(      CMP      r0,#0x22
        0x08001e18:    d169        i.      BNE      0x8001eee ; UART_Receive_IT + 224
        0x08001e1a:    68a0        .h      LDR      r0,[r4,#8]
        0x08001e1c:    f5b05f80    ..._    CMP      r0,#0x1000
        0x08001e20:    d10c        ..      BNE      0x8001e3c ; UART_Receive_IT + 46
        0x08001e22:    6920         i      LDR      r0,[r4,#0x10]
        0x08001e24:    b950        P.      CBNZ     r0,0x8001e3c ; UART_Receive_IT + 46
        0x08001e26:    2500        .%      MOVS     r5,#0
        0x08001e28:    6aa6        .j      LDR      r6,[r4,#0x28]
        0x08001e2a:    6820         h      LDR      r0,[r4,#0]
        0x08001e2c:    6840        @h      LDR      r0,[r0,#4]
        0x08001e2e:    f3c00008    ....    UBFX     r0,r0,#0,#9
        0x08001e32:    8030        0.      STRH     r0,[r6,#0]
        0x08001e34:    6aa0        .j      LDR      r0,[r4,#0x28]
        0x08001e36:    1c80        ..      ADDS     r0,r0,#2
        0x08001e38:    62a0        .b      STR      r0,[r4,#0x28]
        0x08001e3a:    e015        ..      B        0x8001e68 ; UART_Receive_IT + 90
        0x08001e3c:    6aa5        .j      LDR      r5,[r4,#0x28]
        0x08001e3e:    2600        .&      MOVS     r6,#0
        0x08001e40:    68a0        .h      LDR      r0,[r4,#8]
        0x08001e42:    f5b05f80    ..._    CMP      r0,#0x1000
        0x08001e46:    d003        ..      BEQ      0x8001e50 ; UART_Receive_IT + 66
        0x08001e48:    68a0        .h      LDR      r0,[r4,#8]
        0x08001e4a:    b928        (.      CBNZ     r0,0x8001e58 ; UART_Receive_IT + 74
        0x08001e4c:    6920         i      LDR      r0,[r4,#0x10]
        0x08001e4e:    b918        ..      CBNZ     r0,0x8001e58 ; UART_Receive_IT + 74
        0x08001e50:    6820         h      LDR      r0,[r4,#0]
        0x08001e52:    6840        @h      LDR      r0,[r0,#4]
        0x08001e54:    7028        (p      STRB     r0,[r5,#0]
        0x08001e56:    e004        ..      B        0x8001e62 ; UART_Receive_IT + 84
        0x08001e58:    6820         h      LDR      r0,[r4,#0]
        0x08001e5a:    6840        @h      LDR      r0,[r0,#4]
        0x08001e5c:    f000007f    ....    AND      r0,r0,#0x7f
        0x08001e60:    7028        (p      STRB     r0,[r5,#0]
        0x08001e62:    6aa0        .j      LDR      r0,[r4,#0x28]
        0x08001e64:    1c40        @.      ADDS     r0,r0,#1
        0x08001e66:    62a0        .b      STR      r0,[r4,#0x28]
        0x08001e68:    8de0        ..      LDRH     r0,[r4,#0x2e]
        0x08001e6a:    1e40        @.      SUBS     r0,r0,#1
        0x08001e6c:    b280        ..      UXTH     r0,r0
        0x08001e6e:    85e0        ..      STRH     r0,[r4,#0x2e]
        0x08001e70:    bba8        ..      CBNZ     r0,0x8001ede ; UART_Receive_IT + 208
        0x08001e72:    6820         h      LDR      r0,[r4,#0]
        0x08001e74:    68c0        .h      LDR      r0,[r0,#0xc]
        0x08001e76:    f0200020     . .    BIC      r0,r0,#0x20
        0x08001e7a:    6821        !h      LDR      r1,[r4,#0]
        0x08001e7c:    60c8        .`      STR      r0,[r1,#0xc]
        0x08001e7e:    6820         h      LDR      r0,[r4,#0]
        0x08001e80:    68c0        .h      LDR      r0,[r0,#0xc]
        0x08001e82:    f4207080     ..p    BIC      r0,r0,#0x100
        0x08001e86:    6821        !h      LDR      r1,[r4,#0]
        0x08001e88:    60c8        .`      STR      r0,[r1,#0xc]
        0x08001e8a:    6820         h      LDR      r0,[r4,#0]
        0x08001e8c:    6940        @i      LDR      r0,[r0,#0x14]
        0x08001e8e:    f0200001     ...    BIC      r0,r0,#1
        0x08001e92:    6821        !h      LDR      r1,[r4,#0]
        0x08001e94:    6148        Ha      STR      r0,[r1,#0x14]
        0x08001e96:    2020                MOVS     r0,#0x20
        0x08001e98:    f884003e    ..>.    STRB     r0,[r4,#0x3e]
        0x08001e9c:    6b20         k      LDR      r0,[r4,#0x30]
        0x08001e9e:    2801        .(      CMP      r0,#1
        0x08001ea0:    d11e        ..      BNE      0x8001ee0 ; UART_Receive_IT + 210
        0x08001ea2:    2000        .       MOVS     r0,#0
        0x08001ea4:    6320         c      STR      r0,[r4,#0x30]
        0x08001ea6:    6820         h      LDR      r0,[r4,#0]
        0x08001ea8:    68c0        .h      LDR      r0,[r0,#0xc]
        0x08001eaa:    f0200010     ...    BIC      r0,r0,#0x10
        0x08001eae:    6821        !h      LDR      r1,[r4,#0]
        0x08001eb0:    60c8        .`      STR      r0,[r1,#0xc]
        0x08001eb2:    6820         h      LDR      r0,[r4,#0]
        0x08001eb4:    6800        .h      LDR      r0,[r0,#0]
        0x08001eb6:    f0000010    ....    AND      r0,r0,#0x10
        0x08001eba:    2810        .(      CMP      r0,#0x10
        0x08001ebc:    d10a        ..      BNE      0x8001ed4 ; UART_Receive_IT + 198
        0x08001ebe:    bf00        ..      NOP      
        0x08001ec0:    2000        .       MOVS     r0,#0
        0x08001ec2:    9000        ..      STR      r0,[sp,#0]
        0x08001ec4:    6820         h      LDR      r0,[r4,#0]
        0x08001ec6:    6800        .h      LDR      r0,[r0,#0]
        0x08001ec8:    9000        ..      STR      r0,[sp,#0]
        0x08001eca:    6820         h      LDR      r0,[r4,#0]
        0x08001ecc:    6840        @h      LDR      r0,[r0,#4]
        0x08001ece:    9000        ..      STR      r0,[sp,#0]
        0x08001ed0:    bf00        ..      NOP      
        0x08001ed2:    bf00        ..      NOP      
        0x08001ed4:    8da1        ..      LDRH     r1,[r4,#0x2c]
        0x08001ed6:    4620         F      MOV      r0,r4
        0x08001ed8:    f7fffb5f    .._.    BL       HAL_UARTEx_RxEventCallback ; 0x800159a
        0x08001edc:    e003        ..      B        0x8001ee6 ; UART_Receive_IT + 216
        0x08001ede:    e004        ..      B        0x8001eea ; UART_Receive_IT + 220
        0x08001ee0:    4620         F      MOV      r0,r4
        0x08001ee2:    f7fffd4f    ..O.    BL       HAL_UART_RxCpltCallback ; 0x8001984
        0x08001ee6:    2000        .       MOVS     r0,#0
        0x08001ee8:    bdf8        ..      POP      {r3-r7,pc}
        0x08001eea:    2000        .       MOVS     r0,#0
        0x08001eec:    e7fc        ..      B        0x8001ee8 ; UART_Receive_IT + 218
        0x08001eee:    2002        .       MOVS     r0,#2
        0x08001ef0:    e7fa        ..      B        0x8001ee8 ; UART_Receive_IT + 218
        0x08001ef2:    0000        ..      MOVS     r0,r0
    i.UART_SetConfig
    UART_SetConfig
        0x08001ef4:    b570        p.      PUSH     {r4-r6,lr}
        0x08001ef6:    4604        .F      MOV      r4,r0
        0x08001ef8:    6821        !h      LDR      r1,[r4,#0]
        0x08001efa:    6909        .i      LDR      r1,[r1,#0x10]
        0x08001efc:    f4215140    !.@Q    BIC      r1,r1,#0x3000
        0x08001f00:    68e2        .h      LDR      r2,[r4,#0xc]
        0x08001f02:    4311        .C      ORRS     r1,r1,r2
        0x08001f04:    6822        "h      LDR      r2,[r4,#0]
        0x08001f06:    6111        .a      STR      r1,[r2,#0x10]
        0x08001f08:    6922        "i      LDR      r2,[r4,#0x10]
        0x08001f0a:    68a1        .h      LDR      r1,[r4,#8]
        0x08001f0c:    4311        .C      ORRS     r1,r1,r2
        0x08001f0e:    6962        bi      LDR      r2,[r4,#0x14]
        0x08001f10:    ea410502    A...    ORR      r5,r1,r2
        0x08001f14:    6821        !h      LDR      r1,[r4,#0]
        0x08001f16:    68c9        .h      LDR      r1,[r1,#0xc]
        0x08001f18:    f241620c    A..b    MOV      r2,#0x160c
        0x08001f1c:    4391        .C      BICS     r1,r1,r2
        0x08001f1e:    4329        )C      ORRS     r1,r1,r5
        0x08001f20:    6822        "h      LDR      r2,[r4,#0]
        0x08001f22:    60d1        .`      STR      r1,[r2,#0xc]
        0x08001f24:    6821        !h      LDR      r1,[r4,#0]
        0x08001f26:    6949        Ii      LDR      r1,[r1,#0x14]
        0x08001f28:    f4217140    !.@q    BIC      r1,r1,#0x300
        0x08001f2c:    69a2        .i      LDR      r2,[r4,#0x18]
        0x08001f2e:    4311        .C      ORRS     r1,r1,r2
        0x08001f30:    6822        "h      LDR      r2,[r4,#0]
        0x08001f32:    6151        Qa      STR      r1,[r2,#0x14]
        0x08001f34:    4a2d        -J      LDR      r2,[pc,#180] ; [0x8001fec] = 0x40013800
        0x08001f36:    6821        !h      LDR      r1,[r4,#0]
        0x08001f38:    4291        .B      CMP      r1,r2
        0x08001f3a:    d102        ..      BNE      0x8001f42 ; UART_SetConfig + 78
        0x08001f3c:    f7feff48    ..H.    BL       HAL_RCC_GetPCLK2Freq ; 0x8000dd0
        0x08001f40:    e001        ..      B        0x8001f46 ; UART_SetConfig + 82
        0x08001f42:    f7feff35    ..5.    BL       HAL_RCC_GetPCLK1Freq ; 0x8000db0
        0x08001f46:    eb0001c0    ....    ADD      r1,r0,r0,LSL #3
        0x08001f4a:    eb011100    ....    ADD      r1,r1,r0,LSL #4
        0x08001f4e:    6862        bh      LDR      r2,[r4,#4]
        0x08001f50:    0092        ..      LSLS     r2,r2,#2
        0x08001f52:    fbb1f1f2    ....    UDIV     r1,r1,r2
        0x08001f56:    eb0002c0    ....    ADD      r2,r0,r0,LSL #3
        0x08001f5a:    eb021200    ....    ADD      r2,r2,r0,LSL #4
        0x08001f5e:    6863        ch      LDR      r3,[r4,#4]
        0x08001f60:    009b        ..      LSLS     r3,r3,#2
        0x08001f62:    fbb2f2f3    ....    UDIV     r2,r2,r3
        0x08001f66:    2364        d#      MOVS     r3,#0x64
        0x08001f68:    fbb2f2f3    ....    UDIV     r2,r2,r3
        0x08001f6c:    eb0203c2    ....    ADD      r3,r2,r2,LSL #3
        0x08001f70:    eb031202    ....    ADD      r2,r3,r2,LSL #4
        0x08001f74:    eba10182    ....    SUB      r1,r1,r2,LSL #2
        0x08001f78:    2232        2"      MOVS     r2,#0x32
        0x08001f7a:    eb021101    ....    ADD      r1,r2,r1,LSL #4
        0x08001f7e:    2264        d"      MOVS     r2,#0x64
        0x08001f80:    fbb1f1f2    ....    UDIV     r1,r1,r2
        0x08001f84:    f00101f0    ....    AND      r1,r1,#0xf0
        0x08001f88:    eb0002c0    ....    ADD      r2,r0,r0,LSL #3
        0x08001f8c:    eb021200    ....    ADD      r2,r2,r0,LSL #4
        0x08001f90:    6863        ch      LDR      r3,[r4,#4]
        0x08001f92:    009b        ..      LSLS     r3,r3,#2
        0x08001f94:    fbb2f2f3    ....    UDIV     r2,r2,r3
        0x08001f98:    2364        d#      MOVS     r3,#0x64
        0x08001f9a:    fbb2f2f3    ....    UDIV     r2,r2,r3
        0x08001f9e:    eb011202    ....    ADD      r2,r1,r2,LSL #4
        0x08001fa2:    eb0001c0    ....    ADD      r1,r0,r0,LSL #3
        0x08001fa6:    eb011100    ....    ADD      r1,r1,r0,LSL #4
        0x08001faa:    6863        ch      LDR      r3,[r4,#4]
        0x08001fac:    009b        ..      LSLS     r3,r3,#2
        0x08001fae:    fbb1f1f3    ....    UDIV     r1,r1,r3
        0x08001fb2:    eb0003c0    ....    ADD      r3,r0,r0,LSL #3
        0x08001fb6:    eb031300    ....    ADD      r3,r3,r0,LSL #4
        0x08001fba:    6866        fh      LDR      r6,[r4,#4]
        0x08001fbc:    00b6        ..      LSLS     r6,r6,#2
        0x08001fbe:    fbb3f3f6    ....    UDIV     r3,r3,r6
        0x08001fc2:    2664        d&      MOVS     r6,#0x64
        0x08001fc4:    fbb3f3f6    ....    UDIV     r3,r3,r6
        0x08001fc8:    eb0306c3    ....    ADD      r6,r3,r3,LSL #3
        0x08001fcc:    eb061303    ....    ADD      r3,r6,r3,LSL #4
        0x08001fd0:    eba10183    ....    SUB      r1,r1,r3,LSL #2
        0x08001fd4:    2332        2#      MOVS     r3,#0x32
        0x08001fd6:    eb031101    ....    ADD      r1,r3,r1,LSL #4
        0x08001fda:    2364        d#      MOVS     r3,#0x64
        0x08001fdc:    fbb1f1f3    ....    UDIV     r1,r1,r3
        0x08001fe0:    f001010f    ....    AND      r1,r1,#0xf
        0x08001fe4:    4411        .D      ADD      r1,r1,r2
        0x08001fe6:    6822        "h      LDR      r2,[r4,#0]
        0x08001fe8:    6091        .`      STR      r1,[r2,#8]
        0x08001fea:    bd70        p.      POP      {r4-r6,pc}
    $d
        0x08001fec:    40013800    .8.@    DCD    1073821696
    $t
    i.UART_Transmit_IT
    UART_Transmit_IT
        0x08001ff0:    4601        .F      MOV      r1,r0
        0x08001ff2:    f891003d    ..=.    LDRB     r0,[r1,#0x3d]
        0x08001ff6:    2821        !(      CMP      r0,#0x21
        0x08001ff8:    d128        (.      BNE      0x800204c ; UART_Transmit_IT + 92
        0x08001ffa:    6888        .h      LDR      r0,[r1,#8]
        0x08001ffc:    f5b05f80    ..._    CMP      r0,#0x1000
        0x08002000:    d10b        ..      BNE      0x800201a ; UART_Transmit_IT + 42
        0x08002002:    6908        .i      LDR      r0,[r1,#0x10]
        0x08002004:    b948        H.      CBNZ     r0,0x800201a ; UART_Transmit_IT + 42
        0x08002006:    6a0a        .j      LDR      r2,[r1,#0x20]
        0x08002008:    8810        ..      LDRH     r0,[r2,#0]
        0x0800200a:    f3c00008    ....    UBFX     r0,r0,#0,#9
        0x0800200e:    680b        .h      LDR      r3,[r1,#0]
        0x08002010:    6058        X`      STR      r0,[r3,#4]
        0x08002012:    6a08        .j      LDR      r0,[r1,#0x20]
        0x08002014:    1c80        ..      ADDS     r0,r0,#2
        0x08002016:    6208        .b      STR      r0,[r1,#0x20]
        0x08002018:    e005        ..      B        0x8002026 ; UART_Transmit_IT + 54
        0x0800201a:    6a0b        .j      LDR      r3,[r1,#0x20]
        0x0800201c:    1c58        X.      ADDS     r0,r3,#1
        0x0800201e:    6208        .b      STR      r0,[r1,#0x20]
        0x08002020:    7818        .x      LDRB     r0,[r3,#0]
        0x08002022:    680b        .h      LDR      r3,[r1,#0]
        0x08002024:    6058        X`      STR      r0,[r3,#4]
        0x08002026:    8cc8        ..      LDRH     r0,[r1,#0x26]
        0x08002028:    1e40        @.      SUBS     r0,r0,#1
        0x0800202a:    b280        ..      UXTH     r0,r0
        0x0800202c:    84c8        ..      STRH     r0,[r1,#0x26]
        0x0800202e:    b958        X.      CBNZ     r0,0x8002048 ; UART_Transmit_IT + 88
        0x08002030:    6808        .h      LDR      r0,[r1,#0]
        0x08002032:    68c0        .h      LDR      r0,[r0,#0xc]
        0x08002034:    f0200080     ...    BIC      r0,r0,#0x80
        0x08002038:    680b        .h      LDR      r3,[r1,#0]
        0x0800203a:    60d8        .`      STR      r0,[r3,#0xc]
        0x0800203c:    6808        .h      LDR      r0,[r1,#0]
        0x0800203e:    68c0        .h      LDR      r0,[r0,#0xc]
        0x08002040:    f0400040    @.@.    ORR      r0,r0,#0x40
        0x08002044:    680b        .h      LDR      r3,[r1,#0]
        0x08002046:    60d8        .`      STR      r0,[r3,#0xc]
        0x08002048:    2000        .       MOVS     r0,#0
        0x0800204a:    4770        pG      BX       lr
        0x0800204c:    2002        .       MOVS     r0,#2
        0x0800204e:    e7fc        ..      B        0x800204a ; UART_Transmit_IT + 90
    i.USART1_IRQHandler
    USART1_IRQHandler
        0x08002050:    b510        ..      PUSH     {r4,lr}
        0x08002052:    2400        .$      MOVS     r4,#0
        0x08002054:    4808        .H      LDR      r0,[pc,#32] ; [0x8002078] = 0x40013800
        0x08002056:    6800        .h      LDR      r0,[r0,#0]
        0x08002058:    f0000020    .. .    AND      r0,r0,#0x20
        0x0800205c:    b138        8.      CBZ      r0,0x800206e ; USART1_IRQHandler + 30
        0x0800205e:    4806        .H      LDR      r0,[pc,#24] ; [0x8002078] = 0x40013800
        0x08002060:    1d00        ..      ADDS     r0,r0,#4
        0x08002062:    6800        .h      LDR      r0,[r0,#0]
        0x08002064:    b2c4        ..      UXTB     r4,r0
        0x08002066:    4905        .I      LDR      r1,[pc,#20] ; [0x800207c] = 0x20000098
        0x08002068:    4620         F      MOV      r0,r4
        0x0800206a:    f001f923    ..#.    BL       ring_buffer_write ; 0x80032b4
        0x0800206e:    4804        .H      LDR      r0,[pc,#16] ; [0x8002080] = 0x200004a0
        0x08002070:    f7fffa96    ....    BL       HAL_UART_IRQHandler ; 0x80015a0
        0x08002074:    bd10        ..      POP      {r4,pc}
    $d
        0x08002076:    0000        ..      DCW    0
        0x08002078:    40013800    .8.@    DCD    1073821696
        0x0800207c:    20000098    ...     DCD    536871064
        0x08002080:    200004a0    ...     DCD    536872096
    $t
    i.USART3_IRQHandler
    USART3_IRQHandler
        0x08002084:    b510        ..      PUSH     {r4,lr}
        0x08002086:    4802        .H      LDR      r0,[pc,#8] ; [0x8002090] = 0x200004e4
        0x08002088:    f7fffa8a    ....    BL       HAL_UART_IRQHandler ; 0x80015a0
        0x0800208c:    bd10        ..      POP      {r4,pc}
    $d
        0x0800208e:    0000        ..      DCW    0
        0x08002090:    200004e4    ...     DCD    536872164
    $t
    i.UsageFault_Handler
    UsageFault_Handler
        0x08002094:    bf00        ..      NOP      
        0x08002096:    e7fe        ..      B        0x8002096 ; UsageFault_Handler + 2
    i.__0printf$8
    __0printf$8
    __1printf$8
    __2printf
        0x08002098:    b40f        ..      PUSH     {r0-r3}
        0x0800209a:    4b05        .K      LDR      r3,[pc,#20] ; [0x80020b0] = 0x8002579
        0x0800209c:    b510        ..      PUSH     {r4,lr}
        0x0800209e:    a903        ..      ADD      r1,sp,#0xc
        0x080020a0:    4a04        .J      LDR      r2,[pc,#16] ; [0x80020b4] = 0x20000094
        0x080020a2:    9802        ..      LDR      r0,[sp,#8]
        0x080020a4:    f000f83c    ..<.    BL       _printf_core ; 0x8002120
        0x080020a8:    bc10        ..      POP      {r4}
        0x080020aa:    f85dfb14    ]...    LDR      pc,[sp],#0x14
    $d
        0x080020ae:    0000        ..      DCW    0
        0x080020b0:    08002579    y%..    DCD    134227321
        0x080020b4:    20000094    ...     DCD    536871060
    $t
    i.__NVIC_GetPriorityGrouping
    __NVIC_GetPriorityGrouping
        0x080020b8:    4802        .H      LDR      r0,[pc,#8] ; [0x80020c4] = 0xe000ed0c
        0x080020ba:    6800        .h      LDR      r0,[r0,#0]
        0x080020bc:    f3c02002    ...     UBFX     r0,r0,#8,#3
        0x080020c0:    4770        pG      BX       lr
    $d
        0x080020c2:    0000        ..      DCW    0
        0x080020c4:    e000ed0c    ....    DCD    3758157068
    $t
    i.__NVIC_SetPriority
    __NVIC_SetPriority
        0x080020c8:    b510        ..      PUSH     {r4,lr}
        0x080020ca:    2800        .(      CMP      r0,#0
        0x080020cc:    db04        ..      BLT      0x80020d8 ; __NVIC_SetPriority + 16
        0x080020ce:    070a        ..      LSLS     r2,r1,#28
        0x080020d0:    0e13        ..      LSRS     r3,r2,#24
        0x080020d2:    4a05        .J      LDR      r2,[pc,#20] ; [0x80020e8] = 0xe000e400
        0x080020d4:    5413        .T      STRB     r3,[r2,r0]
        0x080020d6:    e006        ..      B        0x80020e6 ; __NVIC_SetPriority + 30
        0x080020d8:    070a        ..      LSLS     r2,r1,#28
        0x080020da:    0e14        ..      LSRS     r4,r2,#24
        0x080020dc:    4a03        .J      LDR      r2,[pc,#12] ; [0x80020ec] = 0xe000ed18
        0x080020de:    f000030f    ....    AND      r3,r0,#0xf
        0x080020e2:    1f1b        ..      SUBS     r3,r3,#4
        0x080020e4:    54d4        .T      STRB     r4,[r2,r3]
        0x080020e6:    bd10        ..      POP      {r4,pc}
    $d
        0x080020e8:    e000e400    ....    DCD    3758154752
        0x080020ec:    e000ed18    ....    DCD    3758157080
    $t
    i.__get_BASEPRI
    __get_BASEPRI
        0x080020f0:    f3ef8011    ....    MRS      r0,BASEPRI
        0x080020f4:    4770        pG      BX       lr
    i.__get_IPSR
    __get_IPSR
        0x080020f6:    f3ef8005    ....    MRS      r0,IPSR
        0x080020fa:    4770        pG      BX       lr
    i.__get_PRIMASK
    __get_PRIMASK
        0x080020fc:    f3ef8010    ....    MRS      r0,PRIMASK
        0x08002100:    4770        pG      BX       lr
    i.__scatterload_copy
    __scatterload_copy
        0x08002102:    e002        ..      B        0x800210a ; __scatterload_copy + 8
        0x08002104:    c808        ..      LDM      r0!,{r3}
        0x08002106:    1f12        ..      SUBS     r2,r2,#4
        0x08002108:    c108        ..      STM      r1!,{r3}
        0x0800210a:    2a00        .*      CMP      r2,#0
        0x0800210c:    d1fa        ..      BNE      0x8002104 ; __scatterload_copy + 2
        0x0800210e:    4770        pG      BX       lr
    i.__scatterload_null
    __scatterload_null
        0x08002110:    4770        pG      BX       lr
    i.__scatterload_zeroinit
    __scatterload_zeroinit
        0x08002112:    2000        .       MOVS     r0,#0
        0x08002114:    e001        ..      B        0x800211a ; __scatterload_zeroinit + 8
        0x08002116:    c101        ..      STM      r1!,{r0}
        0x08002118:    1f12        ..      SUBS     r2,r2,#4
        0x0800211a:    2a00        .*      CMP      r2,#0
        0x0800211c:    d1fb        ..      BNE      0x8002116 ; __scatterload_zeroinit + 4
        0x0800211e:    4770        pG      BX       lr
    i._printf_core
    _printf_core
        0x08002120:    e92d4fff    -..O    PUSH     {r0-r11,lr}
        0x08002124:    b08d        ..      SUB      sp,sp,#0x34
        0x08002126:    460f        .F      MOV      r7,r1
        0x08002128:    4605        .F      MOV      r5,r0
        0x0800212a:    2600        .&      MOVS     r6,#0
        0x0800212c:    e006        ..      B        0x800213c ; _printf_core + 28
        0x0800212e:    2825        %(      CMP      r0,#0x25
        0x08002130:    d00b        ..      BEQ      0x800214a ; _printf_core + 42
        0x08002132:    e9dd120f    ....    LDRD     r1,r2,[sp,#0x3c]
        0x08002136:    4790        .G      BLX      r2
        0x08002138:    1c6d        m.      ADDS     r5,r5,#1
        0x0800213a:    1c76        v.      ADDS     r6,r6,#1
        0x0800213c:    7828        (x      LDRB     r0,[r5,#0]
        0x0800213e:    2800        .(      CMP      r0,#0
        0x08002140:    d1f5        ..      BNE      0x800212e ; _printf_core + 14
        0x08002142:    b011        ..      ADD      sp,sp,#0x44
        0x08002144:    4630        0F      MOV      r0,r6
        0x08002146:    e8bd8ff0    ....    POP      {r4-r11,pc}
        0x0800214a:    2400        .$      MOVS     r4,#0
        0x0800214c:    46a2        .F      MOV      r10,r4
        0x0800214e:    46a1        .F      MOV      r9,r4
        0x08002150:    2201        ."      MOVS     r2,#1
        0x08002152:    49e9        .I      LDR      r1,[pc,#932] ; [0x80024f8] = 0x12809
        0x08002154:    e000        ..      B        0x8002158 ; _printf_core + 56
        0x08002156:    4304        .C      ORRS     r4,r4,r0
        0x08002158:    f8153f01    ...?    LDRB     r3,[r5,#1]!
        0x0800215c:    3b20         ;      SUBS     r3,r3,#0x20
        0x0800215e:    fa02f003    ....    LSL      r0,r2,r3
        0x08002162:    4208        .B      TST      r0,r1
        0x08002164:    d1f7        ..      BNE      0x8002156 ; _printf_core + 54
        0x08002166:    7828        (x      LDRB     r0,[r5,#0]
        0x08002168:    282a        *(      CMP      r0,#0x2a
        0x0800216a:    d010        ..      BEQ      0x800218e ; _printf_core + 110
        0x0800216c:    f06f022f    o./.    MVN      r2,#0x2f
        0x08002170:    7828        (x      LDRB     r0,[r5,#0]
        0x08002172:    f1a00130    ..0.    SUB      r1,r0,#0x30
        0x08002176:    2909        .)      CMP      r1,#9
        0x08002178:    d814        ..      BHI      0x80021a4 ; _printf_core + 132
        0x0800217a:    eb0a018a    ....    ADD      r1,r10,r10,LSL #2
        0x0800217e:    eb020141    ..A.    ADD      r1,r2,r1,LSL #1
        0x08002182:    f0440402    D...    ORR      r4,r4,#2
        0x08002186:    eb000a01    ....    ADD      r10,r0,r1
        0x0800218a:    1c6d        m.      ADDS     r5,r5,#1
        0x0800218c:    e7f0        ..      B        0x8002170 ; _printf_core + 80
        0x0800218e:    cf01        ..      LDM      r7!,{r0}
        0x08002190:    ea5f0a00    _...    MOVS     r10,r0
        0x08002194:    d503        ..      BPL      0x800219e ; _printf_core + 126
        0x08002196:    f4445400    D..T    ORR      r4,r4,#0x2000
        0x0800219a:    f1ca0a00    ....    RSB      r10,r10,#0
        0x0800219e:    f0440402    D...    ORR      r4,r4,#2
        0x080021a2:    1c6d        m.      ADDS     r5,r5,#1
        0x080021a4:    7828        (x      LDRB     r0,[r5,#0]
        0x080021a6:    282e        .(      CMP      r0,#0x2e
        0x080021a8:    d117        ..      BNE      0x80021da ; _printf_core + 186
        0x080021aa:    f8150f01    ....    LDRB     r0,[r5,#1]!
        0x080021ae:    f0440404    D...    ORR      r4,r4,#4
        0x080021b2:    282a        *(      CMP      r0,#0x2a
        0x080021b4:    d00e        ..      BEQ      0x80021d4 ; _printf_core + 180
        0x080021b6:    f06f022f    o./.    MVN      r2,#0x2f
        0x080021ba:    7828        (x      LDRB     r0,[r5,#0]
        0x080021bc:    f1a00130    ..0.    SUB      r1,r0,#0x30
        0x080021c0:    2909        .)      CMP      r1,#9
        0x080021c2:    d80a        ..      BHI      0x80021da ; _printf_core + 186
        0x080021c4:    eb090189    ....    ADD      r1,r9,r9,LSL #2
        0x080021c8:    eb020141    ..A.    ADD      r1,r2,r1,LSL #1
        0x080021cc:    eb000901    ....    ADD      r9,r0,r1
        0x080021d0:    1c6d        m.      ADDS     r5,r5,#1
        0x080021d2:    e7f2        ..      B        0x80021ba ; _printf_core + 154
        0x080021d4:    f8579b04    W...    LDR      r9,[r7],#4
        0x080021d8:    1c6d        m.      ADDS     r5,r5,#1
        0x080021da:    7828        (x      LDRB     r0,[r5,#0]
        0x080021dc:    286c        l(      CMP      r0,#0x6c
        0x080021de:    d00f        ..      BEQ      0x8002200 ; _printf_core + 224
        0x080021e0:    dc06        ..      BGT      0x80021f0 ; _printf_core + 208
        0x080021e2:    284c        L(      CMP      r0,#0x4c
        0x080021e4:    d017        ..      BEQ      0x8002216 ; _printf_core + 246
        0x080021e6:    2868        h(      CMP      r0,#0x68
        0x080021e8:    d00d        ..      BEQ      0x8002206 ; _printf_core + 230
        0x080021ea:    286a        j(      CMP      r0,#0x6a
        0x080021ec:    d114        ..      BNE      0x8002218 ; _printf_core + 248
        0x080021ee:    e004        ..      B        0x80021fa ; _printf_core + 218
        0x080021f0:    2874        t(      CMP      r0,#0x74
        0x080021f2:    d010        ..      BEQ      0x8002216 ; _printf_core + 246
        0x080021f4:    287a        z(      CMP      r0,#0x7a
        0x080021f6:    d10f        ..      BNE      0x8002218 ; _printf_core + 248
        0x080021f8:    e00d        ..      B        0x8002216 ; _printf_core + 246
        0x080021fa:    f4441400    D...    ORR      r4,r4,#0x200000
        0x080021fe:    e00a        ..      B        0x8002216 ; _printf_core + 246
        0x08002200:    f4441480    D...    ORR      r4,r4,#0x100000
        0x08002204:    e001        ..      B        0x800220a ; _printf_core + 234
        0x08002206:    f4441440    D.@.    ORR      r4,r4,#0x300000
        0x0800220a:    7869        ix      LDRB     r1,[r5,#1]
        0x0800220c:    4281        .B      CMP      r1,r0
        0x0800220e:    d102        ..      BNE      0x8002216 ; _printf_core + 246
        0x08002210:    f5041480    ....    ADD      r4,r4,#0x100000
        0x08002214:    1c6d        m.      ADDS     r5,r5,#1
        0x08002216:    1c6d        m.      ADDS     r5,r5,#1
        0x08002218:    7828        (x      LDRB     r0,[r5,#0]
        0x0800221a:    286e        n(      CMP      r0,#0x6e
        0x0800221c:    d01e        ..      BEQ      0x800225c ; _printf_core + 316
        0x0800221e:    dc0c        ..      BGT      0x800223a ; _printf_core + 282
        0x08002220:    2863        c(      CMP      r0,#0x63
        0x08002222:    d030        0.      BEQ      0x8002286 ; _printf_core + 358
        0x08002224:    dc04        ..      BGT      0x8002230 ; _printf_core + 272
        0x08002226:    2800        .(      CMP      r0,#0
        0x08002228:    d08b        ..      BEQ      0x8002142 ; _printf_core + 34
        0x0800222a:    2858        X(      CMP      r0,#0x58
        0x0800222c:    d111        ..      BNE      0x8002252 ; _printf_core + 306
        0x0800222e:    e09f        ..      B        0x8002370 ; _printf_core + 592
        0x08002230:    2864        d(      CMP      r0,#0x64
        0x08002232:    d067        g.      BEQ      0x8002304 ; _printf_core + 484
        0x08002234:    2869        i(      CMP      r0,#0x69
        0x08002236:    d10c        ..      BNE      0x8002252 ; _printf_core + 306
        0x08002238:    e064        d.      B        0x8002304 ; _printf_core + 484
        0x0800223a:    2873        s(      CMP      r0,#0x73
        0x0800223c:    d02d        -.      BEQ      0x800229a ; _printf_core + 378
        0x0800223e:    dc04        ..      BGT      0x800224a ; _printf_core + 298
        0x08002240:    286f        o(      CMP      r0,#0x6f
        0x08002242:    d072        r.      BEQ      0x800232a ; _printf_core + 522
        0x08002244:    2870        p(      CMP      r0,#0x70
        0x08002246:    d104        ..      BNE      0x8002252 ; _printf_core + 306
        0x08002248:    e094        ..      B        0x8002374 ; _printf_core + 596
        0x0800224a:    2875        u(      CMP      r0,#0x75
        0x0800224c:    d06e        n.      BEQ      0x800232c ; _printf_core + 524
        0x0800224e:    2878        x(      CMP      r0,#0x78
        0x08002250:    d06d        m.      BEQ      0x800232e ; _printf_core + 526
        0x08002252:    e9dd120f    ....    LDRD     r1,r2,[sp,#0x3c]
        0x08002256:    4790        .G      BLX      r2
        0x08002258:    1c76        v.      ADDS     r6,r6,#1
        0x0800225a:    e14b        K.      B        0x80024f4 ; _printf_core + 980
        0x0800225c:    f3c45002    ...P    UBFX     r0,r4,#20,#3
        0x08002260:    2802        .(      CMP      r0,#2
        0x08002262:    d006        ..      BEQ      0x8002272 ; _printf_core + 338
        0x08002264:    2803        .(      CMP      r0,#3
        0x08002266:    d009        ..      BEQ      0x800227c ; _printf_core + 348
        0x08002268:    2804        .(      CMP      r0,#4
        0x0800226a:    cf01        ..      LDM      r7!,{r0}
        0x0800226c:    d009        ..      BEQ      0x8002282 ; _printf_core + 354
        0x0800226e:    6006        .`      STR      r6,[r0,#0]
        0x08002270:    e140        @.      B        0x80024f4 ; _printf_core + 980
        0x08002272:    cf01        ..      LDM      r7!,{r0}
        0x08002274:    17f1        ..      ASRS     r1,r6,#31
        0x08002276:    e9c06100    ...a    STRD     r6,r1,[r0,#0]
        0x0800227a:    e13b        ;.      B        0x80024f4 ; _printf_core + 980
        0x0800227c:    cf01        ..      LDM      r7!,{r0}
        0x0800227e:    8006        ..      STRH     r6,[r0,#0]
        0x08002280:    e138        8.      B        0x80024f4 ; _printf_core + 980
        0x08002282:    7006        .p      STRB     r6,[r0,#0]
        0x08002284:    e136        6.      B        0x80024f4 ; _printf_core + 980
        0x08002286:    f8170b04    ....    LDRB     r0,[r7],#4
        0x0800228a:    f88d0000    ....    STRB     r0,[sp,#0]
        0x0800228e:    2000        .       MOVS     r0,#0
        0x08002290:    f88d0001    ....    STRB     r0,[sp,#1]
        0x08002294:    46eb        .F      MOV      r11,sp
        0x08002296:    2001        .       MOVS     r0,#1
        0x08002298:    e003        ..      B        0x80022a2 ; _printf_core + 386
        0x0800229a:    f857bb04    W...    LDR      r11,[r7],#4
        0x0800229e:    f04f30ff    O..0    MOV      r0,#0xffffffff
        0x080022a2:    0761        a.      LSLS     r1,r4,#29
        0x080022a4:    f04f0100    O...    MOV      r1,#0
        0x080022a8:    d402        ..      BMI      0x80022b0 ; _printf_core + 400
        0x080022aa:    e00d        ..      B        0x80022c8 ; _printf_core + 424
        0x080022ac:    f1080101    ....    ADD      r1,r8,#1
        0x080022b0:    4688        .F      MOV      r8,r1
        0x080022b2:    4549        IE      CMP      r1,r9
        0x080022b4:    da0f        ..      BGE      0x80022d6 ; _printf_core + 438
        0x080022b6:    4580        .E      CMP      r8,r0
        0x080022b8:    dbf8        ..      BLT      0x80022ac ; _printf_core + 396
        0x080022ba:    f81b1008    ....    LDRB     r1,[r11,r8]
        0x080022be:    2900        .)      CMP      r1,#0
        0x080022c0:    d1f4        ..      BNE      0x80022ac ; _printf_core + 396
        0x080022c2:    e008        ..      B        0x80022d6 ; _printf_core + 438
        0x080022c4:    f1080101    ....    ADD      r1,r8,#1
        0x080022c8:    4688        .F      MOV      r8,r1
        0x080022ca:    4281        .B      CMP      r1,r0
        0x080022cc:    dbfa        ..      BLT      0x80022c4 ; _printf_core + 420
        0x080022ce:    f81b1008    ....    LDRB     r1,[r11,r8]
        0x080022d2:    2900        .)      CMP      r1,#0
        0x080022d4:    d1f6        ..      BNE      0x80022c4 ; _printf_core + 420
        0x080022d6:    e9dd230f    ...#    LDRD     r2,r3,[sp,#0x3c]
        0x080022da:    ebaa0008    ....    SUB      r0,r10,r8
        0x080022de:    4681        .F      MOV      r9,r0
        0x080022e0:    4621        !F      MOV      r1,r4
        0x080022e2:    f000f931    ..1.    BL       _printf_pre_padding ; 0x8002548
        0x080022e6:    4430        0D      ADD      r0,r0,r6
        0x080022e8:    eb000608    ....    ADD      r6,r0,r8
        0x080022ec:    e004        ..      B        0x80022f8 ; _printf_core + 472
        0x080022ee:    e9dd120f    ....    LDRD     r1,r2,[sp,#0x3c]
        0x080022f2:    f81b0b01    ....    LDRB     r0,[r11],#1
        0x080022f6:    4790        .G      BLX      r2
        0x080022f8:    f1b80801    ....    SUBS     r8,r8,#1
        0x080022fc:    d2f7        ..      BCS      0x80022ee ; _printf_core + 462
        0x080022fe:    4621        !F      MOV      r1,r4
        0x08002300:    4648        HF      MOV      r0,r9
        0x08002302:    e0f2        ..      B        0x80024ea ; _printf_core + 970
        0x08002304:    210a        .!      MOVS     r1,#0xa
        0x08002306:    f3c45202    ...R    UBFX     r2,r4,#20,#3
        0x0800230a:    f04f0b00    O...    MOV      r11,#0
        0x0800230e:    9108        ..      STR      r1,[sp,#0x20]
        0x08002310:    2a02        .*      CMP      r2,#2
        0x08002312:    d004        ..      BEQ      0x800231e ; _printf_core + 510
        0x08002314:    cf01        ..      LDM      r7!,{r0}
        0x08002316:    17c1        ..      ASRS     r1,r0,#31
        0x08002318:    2a03        .*      CMP      r2,#3
        0x0800231a:    d009        ..      BEQ      0x8002330 ; _printf_core + 528
        0x0800231c:    e00a        ..      B        0x8002334 ; _printf_core + 532
        0x0800231e:    1dff        ..      ADDS     r7,r7,#7
        0x08002320:    f0270707    '...    BIC      r7,r7,#7
        0x08002324:    e8f70102    ....    LDRD     r0,r1,[r7],#8
        0x08002328:    e008        ..      B        0x800233c ; _printf_core + 540
        0x0800232a:    e02c        ,.      B        0x8002386 ; _printf_core + 614
        0x0800232c:    e01e        ..      B        0x800236c ; _printf_core + 588
        0x0800232e:    e01f        ..      B        0x8002370 ; _printf_core + 592
        0x08002330:    b200        ..      SXTH     r0,r0
        0x08002332:    17c1        ..      ASRS     r1,r0,#31
        0x08002334:    2a04        .*      CMP      r2,#4
        0x08002336:    d101        ..      BNE      0x800233c ; _printf_core + 540
        0x08002338:    b240        @.      SXTB     r0,r0
        0x0800233a:    17c1        ..      ASRS     r1,r0,#31
        0x0800233c:    1e02        ..      SUBS     r2,r0,#0
        0x0800233e:    f1710200    q...    SBCS     r2,r1,#0
        0x08002342:    da06        ..      BGE      0x8002352 ; _printf_core + 562
        0x08002344:    2300        .#      MOVS     r3,#0
        0x08002346:    ebd00003    ....    RSBS     r0,r0,r3
        0x0800234a:    eb630101    c...    SBC      r1,r3,r1
        0x0800234e:    222d        -"      MOVS     r2,#0x2d
        0x08002350:    e002        ..      B        0x8002358 ; _printf_core + 568
        0x08002352:    0522        ".      LSLS     r2,r4,#20
        0x08002354:    d504        ..      BPL      0x8002360 ; _printf_core + 576
        0x08002356:    222b        +"      MOVS     r2,#0x2b
        0x08002358:    f88d2024    ..$     STRB     r2,[sp,#0x24]
        0x0800235c:    2201        ."      MOVS     r2,#1
        0x0800235e:    e003        ..      B        0x8002368 ; _printf_core + 584
        0x08002360:    07e2        ..      LSLS     r2,r4,#31
        0x08002362:    d001        ..      BEQ      0x8002368 ; _printf_core + 584
        0x08002364:    2220         "      MOVS     r2,#0x20
        0x08002366:    e7f7        ..      B        0x8002358 ; _printf_core + 568
        0x08002368:    4690        .F      MOV      r8,r2
        0x0800236a:    e053        S.      B        0x8002414 ; _printf_core + 756
        0x0800236c:    210a        .!      MOVS     r1,#0xa
        0x0800236e:    e00b        ..      B        0x8002388 ; _printf_core + 616
        0x08002370:    2110        .!      MOVS     r1,#0x10
        0x08002372:    e009        ..      B        0x8002388 ; _printf_core + 616
        0x08002374:    2110        .!      MOVS     r1,#0x10
        0x08002376:    f04f0b00    O...    MOV      r11,#0
        0x0800237a:    f0440404    D...    ORR      r4,r4,#4
        0x0800237e:    f04f0908    O...    MOV      r9,#8
        0x08002382:    9108        ..      STR      r1,[sp,#0x20]
        0x08002384:    e003        ..      B        0x800238e ; _printf_core + 622
        0x08002386:    2108        .!      MOVS     r1,#8
        0x08002388:    f04f0b00    O...    MOV      r11,#0
        0x0800238c:    9108        ..      STR      r1,[sp,#0x20]
        0x0800238e:    f3c45202    ...R    UBFX     r2,r4,#20,#3
        0x08002392:    2a02        .*      CMP      r2,#2
        0x08002394:    d004        ..      BEQ      0x80023a0 ; _printf_core + 640
        0x08002396:    cf01        ..      LDM      r7!,{r0}
        0x08002398:    2100        .!      MOVS     r1,#0
        0x0800239a:    2a03        .*      CMP      r2,#3
        0x0800239c:    d006        ..      BEQ      0x80023ac ; _printf_core + 652
        0x0800239e:    e006        ..      B        0x80023ae ; _printf_core + 654
        0x080023a0:    1dff        ..      ADDS     r7,r7,#7
        0x080023a2:    f0270707    '...    BIC      r7,r7,#7
        0x080023a6:    e8f70102    ....    LDRD     r0,r1,[r7],#8
        0x080023aa:    e003        ..      B        0x80023b4 ; _printf_core + 660
        0x080023ac:    b280        ..      UXTH     r0,r0
        0x080023ae:    2a04        .*      CMP      r2,#4
        0x080023b0:    d100        ..      BNE      0x80023b4 ; _printf_core + 660
        0x080023b2:    b2c0        ..      UXTB     r0,r0
        0x080023b4:    f04f0800    O...    MOV      r8,#0
        0x080023b8:    0722        ".      LSLS     r2,r4,#28
        0x080023ba:    d52b        +.      BPL      0x8002414 ; _printf_core + 756
        0x080023bc:    782a        *x      LDRB     r2,[r5,#0]
        0x080023be:    2a70        p*      CMP      r2,#0x70
        0x080023c0:    d007        ..      BEQ      0x80023d2 ; _printf_core + 690
        0x080023c2:    f8ddc020    .. .    LDR      r12,[sp,#0x20]
        0x080023c6:    f08c0c10    ....    EOR      r12,r12,#0x10
        0x080023ca:    ea5c0c0b    \...    ORRS     r12,r12,r11
        0x080023ce:    d005        ..      BEQ      0x80023dc ; _printf_core + 700
        0x080023d0:    e00e        ..      B        0x80023f0 ; _printf_core + 720
        0x080023d2:    2240        @"      MOVS     r2,#0x40
        0x080023d4:    f88d2024    ..$     STRB     r2,[sp,#0x24]
        0x080023d8:    2201        ."      MOVS     r2,#1
        0x080023da:    e008        ..      B        0x80023ee ; _printf_core + 718
        0x080023dc:    ea500301    P...    ORRS     r3,r0,r1
        0x080023e0:    d006        ..      BEQ      0x80023f0 ; _printf_core + 720
        0x080023e2:    2330        0#      MOVS     r3,#0x30
        0x080023e4:    f88d3024    ..$0    STRB     r3,[sp,#0x24]
        0x080023e8:    f88d2025    ..%     STRB     r2,[sp,#0x25]
        0x080023ec:    2202        ."      MOVS     r2,#2
        0x080023ee:    4690        .F      MOV      r8,r2
        0x080023f0:    9b08        ..      LDR      r3,[sp,#0x20]
        0x080023f2:    f0830308    ....    EOR      r3,r3,#8
        0x080023f6:    ea53030b    S...    ORRS     r3,r3,r11
        0x080023fa:    d10b        ..      BNE      0x8002414 ; _printf_core + 756
        0x080023fc:    ea500201    P...    ORRS     r2,r0,r1
        0x08002400:    d101        ..      BNE      0x8002406 ; _printf_core + 742
        0x08002402:    0762        b.      LSLS     r2,r4,#29
        0x08002404:    d506        ..      BPL      0x8002414 ; _printf_core + 756
        0x08002406:    2230        0"      MOVS     r2,#0x30
        0x08002408:    f88d2024    ..$     STRB     r2,[sp,#0x24]
        0x0800240c:    f04f0801    O...    MOV      r8,#1
        0x08002410:    f1a90901    ....    SUB      r9,r9,#1
        0x08002414:    782a        *x      LDRB     r2,[r5,#0]
        0x08002416:    2a58        X*      CMP      r2,#0x58
        0x08002418:    d004        ..      BEQ      0x8002424 ; _printf_core + 772
        0x0800241a:    a238        8.      ADR      r2,{pc}+0xe2 ; 0x80024fc
        0x0800241c:    920b        ..      STR      r2,[sp,#0x2c]
        0x0800241e:    aa08        ..      ADD      r2,sp,#0x20
        0x08002420:    920a        ..      STR      r2,[sp,#0x28]
        0x08002422:    e00b        ..      B        0x800243c ; _printf_core + 796
        0x08002424:    a23a        :.      ADR      r2,{pc}+0xec ; 0x8002510
        0x08002426:    e7f9        ..      B        0x800241c ; _printf_core + 764
        0x08002428:    465b        [F      MOV      r3,r11
        0x0800242a:    9a08        ..      LDR      r2,[sp,#0x20]
        0x0800242c:    f7fdff38    ..8.    BL       __aeabi_uldivmod ; 0x80002a0
        0x08002430:    9b0b        ..      LDR      r3,[sp,#0x2c]
        0x08002432:    5c9b        .\      LDRB     r3,[r3,r2]
        0x08002434:    9a0a        ..      LDR      r2,[sp,#0x28]
        0x08002436:    1e52        R.      SUBS     r2,r2,#1
        0x08002438:    920a        ..      STR      r2,[sp,#0x28]
        0x0800243a:    7013        .p      STRB     r3,[r2,#0]
        0x0800243c:    ea500201    P...    ORRS     r2,r0,r1
        0x08002440:    d1f2        ..      BNE      0x8002428 ; _printf_core + 776
        0x08002442:    980a        ..      LDR      r0,[sp,#0x28]
        0x08002444:    ebad0000    ....    SUB      r0,sp,r0
        0x08002448:    f1000b20    .. .    ADD      r11,r0,#0x20
        0x0800244c:    0760        `.      LSLS     r0,r4,#29
        0x0800244e:    d502        ..      BPL      0x8002456 ; _printf_core + 822
        0x08002450:    f4243480    $..4    BIC      r4,r4,#0x10000
        0x08002454:    e001        ..      B        0x800245a ; _printf_core + 826
        0x08002456:    f04f0901    O...    MOV      r9,#1
        0x0800245a:    45d9        .E      CMP      r9,r11
        0x0800245c:    dd02        ..      BLE      0x8002464 ; _printf_core + 836
        0x0800245e:    eba9000b    ....    SUB      r0,r9,r11
        0x08002462:    e000        ..      B        0x8002466 ; _printf_core + 838
        0x08002464:    2000        .       MOVS     r0,#0
        0x08002466:    eb00010b    ....    ADD      r1,r0,r11
        0x0800246a:    4441        AD      ADD      r1,r1,r8
        0x0800246c:    9008        ..      STR      r0,[sp,#0x20]
        0x0800246e:    ebaa0a01    ....    SUB      r10,r10,r1
        0x08002472:    03e0        ..      LSLS     r0,r4,#15
        0x08002474:    d406        ..      BMI      0x8002484 ; _printf_core + 868
        0x08002476:    e9dd230f    ...#    LDRD     r2,r3,[sp,#0x3c]
        0x0800247a:    4621        !F      MOV      r1,r4
        0x0800247c:    4650        PF      MOV      r0,r10
        0x0800247e:    f000f863    ..c.    BL       _printf_pre_padding ; 0x8002548
        0x08002482:    4406        .D      ADD      r6,r6,r0
        0x08002484:    f04f0900    O...    MOV      r9,#0
        0x08002488:    e008        ..      B        0x800249c ; _printf_core + 892
        0x0800248a:    a909        ..      ADD      r1,sp,#0x24
        0x0800248c:    f8110009    ....    LDRB     r0,[r1,r9]
        0x08002490:    e9dd120f    ....    LDRD     r1,r2,[sp,#0x3c]
        0x08002494:    4790        .G      BLX      r2
        0x08002496:    f1090901    ....    ADD      r9,r9,#1
        0x0800249a:    1c76        v.      ADDS     r6,r6,#1
        0x0800249c:    45c1        .E      CMP      r9,r8
        0x0800249e:    dbf4        ..      BLT      0x800248a ; _printf_core + 874
        0x080024a0:    03e0        ..      LSLS     r0,r4,#15
        0x080024a2:    d50c        ..      BPL      0x80024be ; _printf_core + 926
        0x080024a4:    e9dd230f    ...#    LDRD     r2,r3,[sp,#0x3c]
        0x080024a8:    4621        !F      MOV      r1,r4
        0x080024aa:    4650        PF      MOV      r0,r10
        0x080024ac:    f000f84c    ..L.    BL       _printf_pre_padding ; 0x8002548
        0x080024b0:    4406        .D      ADD      r6,r6,r0
        0x080024b2:    e004        ..      B        0x80024be ; _printf_core + 926
        0x080024b4:    e9dd120f    ....    LDRD     r1,r2,[sp,#0x3c]
        0x080024b8:    2030        0       MOVS     r0,#0x30
        0x080024ba:    4790        .G      BLX      r2
        0x080024bc:    1c76        v.      ADDS     r6,r6,#1
        0x080024be:    9908        ..      LDR      r1,[sp,#0x20]
        0x080024c0:    1e48        H.      SUBS     r0,r1,#1
        0x080024c2:    9008        ..      STR      r0,[sp,#0x20]
        0x080024c4:    2900        .)      CMP      r1,#0
        0x080024c6:    dcf5        ..      BGT      0x80024b4 ; _printf_core + 916
        0x080024c8:    e008        ..      B        0x80024dc ; _printf_core + 956
        0x080024ca:    980a        ..      LDR      r0,[sp,#0x28]
        0x080024cc:    990a        ..      LDR      r1,[sp,#0x28]
        0x080024ce:    7800        .x      LDRB     r0,[r0,#0]
        0x080024d0:    1c49        I.      ADDS     r1,r1,#1
        0x080024d2:    910a        ..      STR      r1,[sp,#0x28]
        0x080024d4:    e9dd120f    ....    LDRD     r1,r2,[sp,#0x3c]
        0x080024d8:    4790        .G      BLX      r2
        0x080024da:    1c76        v.      ADDS     r6,r6,#1
        0x080024dc:    f1bb0100    ....    SUBS     r1,r11,#0
        0x080024e0:    f1ab0b01    ....    SUB      r11,r11,#1
        0x080024e4:    dcf1        ..      BGT      0x80024ca ; _printf_core + 938
        0x080024e6:    4621        !F      MOV      r1,r4
        0x080024e8:    4650        PF      MOV      r0,r10
        0x080024ea:    e9dd230f    ...#    LDRD     r2,r3,[sp,#0x3c]
        0x080024ee:    f000f819    ....    BL       _printf_post_padding ; 0x8002524
        0x080024f2:    4406        .D      ADD      r6,r6,r0
        0x080024f4:    1c6d        m.      ADDS     r5,r5,#1
        0x080024f6:    e621        !.      B        0x800213c ; _printf_core + 28
    $d
        0x080024f8:    00012809    .(..    DCD    75785
        0x080024fc:    33323130    0123    DCD    858927408
        0x08002500:    37363534    4567    DCD    926299444
        0x08002504:    62613938    89ab    DCD    1650538808
        0x08002508:    66656463    cdef    DCD    1717920867
        0x0800250c:    00000000    ....    DCD    0
        0x08002510:    33323130    0123    DCD    858927408
        0x08002514:    37363534    4567    DCD    926299444
        0x08002518:    42413938    89AB    DCD    1111570744
        0x0800251c:    46454443    CDEF    DCD    1178944579
        0x08002520:    00000000    ....    DCD    0
    $t
    i._printf_post_padding
    _printf_post_padding
        0x08002524:    e92d41f0    -..A    PUSH     {r4-r8,lr}
        0x08002528:    4604        .F      MOV      r4,r0
        0x0800252a:    2500        .%      MOVS     r5,#0
        0x0800252c:    461e        .F      MOV      r6,r3
        0x0800252e:    4617        .F      MOV      r7,r2
        0x08002530:    0488        ..      LSLS     r0,r1,#18
        0x08002532:    d404        ..      BMI      0x800253e ; _printf_post_padding + 26
        0x08002534:    e005        ..      B        0x8002542 ; _printf_post_padding + 30
        0x08002536:    4639        9F      MOV      r1,r7
        0x08002538:    2020                MOVS     r0,#0x20
        0x0800253a:    47b0        .G      BLX      r6
        0x0800253c:    1c6d        m.      ADDS     r5,r5,#1
        0x0800253e:    1e64        d.      SUBS     r4,r4,#1
        0x08002540:    d5f9        ..      BPL      0x8002536 ; _printf_post_padding + 18
        0x08002542:    4628        (F      MOV      r0,r5
        0x08002544:    e8bd81f0    ....    POP      {r4-r8,pc}
    i._printf_pre_padding
    _printf_pre_padding
        0x08002548:    e92d41f0    -..A    PUSH     {r4-r8,lr}
        0x0800254c:    4604        .F      MOV      r4,r0
        0x0800254e:    2500        .%      MOVS     r5,#0
        0x08002550:    461e        .F      MOV      r6,r3
        0x08002552:    4690        .F      MOV      r8,r2
        0x08002554:    03c8        ..      LSLS     r0,r1,#15
        0x08002556:    d501        ..      BPL      0x800255c ; _printf_pre_padding + 20
        0x08002558:    2730        0'      MOVS     r7,#0x30
        0x0800255a:    e000        ..      B        0x800255e ; _printf_pre_padding + 22
        0x0800255c:    2720         '      MOVS     r7,#0x20
        0x0800255e:    0488        ..      LSLS     r0,r1,#18
        0x08002560:    d504        ..      BPL      0x800256c ; _printf_pre_padding + 36
        0x08002562:    e005        ..      B        0x8002570 ; _printf_pre_padding + 40
        0x08002564:    4641        AF      MOV      r1,r8
        0x08002566:    4638        8F      MOV      r0,r7
        0x08002568:    47b0        .G      BLX      r6
        0x0800256a:    1c6d        m.      ADDS     r5,r5,#1
        0x0800256c:    1e64        d.      SUBS     r4,r4,#1
        0x0800256e:    d5f9        ..      BPL      0x8002564 ; _printf_pre_padding + 28
        0x08002570:    4628        (F      MOV      r0,r5
        0x08002572:    e8bd81f0    ....    POP      {r4-r8,pc}
        0x08002576:    0000        ..      MOVS     r0,r0
    i.fputc
    fputc
        0x08002578:    4602        .F      MOV      r2,r0
        0x0800257a:    4805        .H      LDR      r0,[pc,#20] ; [0x8002590] = 0x40013804
        0x0800257c:    6002        .`      STR      r2,[r0,#0]
        0x0800257e:    bf00        ..      NOP      
        0x08002580:    4803        .H      LDR      r0,[pc,#12] ; [0x8002590] = 0x40013804
        0x08002582:    1f00        ..      SUBS     r0,r0,#4
        0x08002584:    6800        .h      LDR      r0,[r0,#0]
        0x08002586:    f0000080    ....    AND      r0,r0,#0x80
        0x0800258a:    2800        .(      CMP      r0,#0
        0x0800258c:    d0f8        ..      BEQ      0x8002580 ; fputc + 8
        0x0800258e:    4770        pG      BX       lr
    $d
        0x08002590:    40013804    .8.@    DCD    1073821700
    $t
    i.main
    main
        0x08002594:    f7fefa34    ..4.    BL       HAL_Init ; 0x8000a00
        0x08002598:    f7fffb6c    ..l.    BL       SystemClock_Config ; 0x8001c74
        0x0800259c:    f7fffa5e    ..^.    BL       MX_GPIO_Init ; 0x8001a5c
        0x080025a0:    f7fffaec    ....    BL       MX_USART1_UART_Init ; 0x8001b7c
        0x080025a4:    f7fffb06    ....    BL       MX_USART3_UART_Init ; 0x8001bb4
        0x080025a8:    f7fffa04    ....    BL       KEY_GPIO_ReInit ; 0x80019b4
        0x080025ac:    4808        .H      LDR      r0,[pc,#32] ; [0x80025d0] = 0x20000098
        0x080025ae:    f000fe7b    ..{.    BL       ring_buffer_init ; 0x80032a8
        0x080025b2:    f7fdff23    ..#.    BL       EnableDebugIRQ ; 0x80003fc
        0x080025b6:    a007        ..      ADR      r0,{pc}+0x1e ; 0x80025d4
        0x080025b8:    f7fffd6e    ..n.    BL       __0printf$8 ; 0x8002098
        0x080025bc:    f7fffbe4    ....    BL       TestDebug ; 0x8001d88
        0x080025c0:    f000f82c    ..,.    BL       osKernelInitialize ; 0x800261c
        0x080025c4:    f7fffa3a    ..:.    BL       MX_FREERTOS_Init ; 0x8001a3c
        0x080025c8:    f000f848    ..H.    BL       osKernelStart ; 0x800265c
        0x080025cc:    bf00        ..      NOP      
        0x080025ce:    e7fe        ..      B        0x80025ce ; main + 58
    $d
        0x080025d0:    20000098    ...     DCD    536871064
        0x080025d4:    6c6c6548    Hell    DCD    1819043144
        0x080025d8:    6f57206f    o Wo    DCD    1867980911
        0x080025dc:    21646c72    rld!    DCD    560229490
        0x080025e0:    00000a0d    ....    DCD    2573
    $t
    i.osDelay
    osDelay
        0x080025e4:    b570        p.      PUSH     {r4-r6,lr}
        0x080025e6:    4605        .F      MOV      r5,r0
        0x080025e8:    f7fffd85    ....    BL       __get_IPSR ; 0x80020f6
        0x080025ec:    b948        H.      CBNZ     r0,0x8002602 ; osDelay + 30
        0x080025ee:    f7fffd85    ....    BL       __get_PRIMASK ; 0x80020fc
        0x080025f2:    b930        0.      CBNZ     r0,0x8002602 ; osDelay + 30
        0x080025f4:    4808        .H      LDR      r0,[pc,#32] ; [0x8002618] = 0x2000006c
        0x080025f6:    6800        .h      LDR      r0,[r0,#0]
        0x080025f8:    2802        .(      CMP      r0,#2
        0x080025fa:    d105        ..      BNE      0x8002608 ; osDelay + 36
        0x080025fc:    f7fffd78    ..x.    BL       __get_BASEPRI ; 0x80020f0
        0x08002600:    b110        ..      CBZ      r0,0x8002608 ; osDelay + 36
        0x08002602:    f06f0405    o...    MVN      r4,#5
        0x08002606:    e004        ..      B        0x8002612 ; osDelay + 46
        0x08002608:    2400        .$      MOVS     r4,#0
        0x0800260a:    b115        ..      CBZ      r5,0x8002612 ; osDelay + 46
        0x0800260c:    4628        (F      MOV      r0,r5
        0x0800260e:    f001f8cd    ....    BL       vTaskDelay ; 0x80037ac
        0x08002612:    4620         F      MOV      r0,r4
        0x08002614:    bd70        p.      POP      {r4-r6,pc}
    $d
        0x08002616:    0000        ..      DCW    0
        0x08002618:    2000006c    l..     DCD    536871020
    $t
    i.osKernelInitialize
    osKernelInitialize
        0x0800261c:    b510        ..      PUSH     {r4,lr}
        0x0800261e:    f7fffd6a    ..j.    BL       __get_IPSR ; 0x80020f6
        0x08002622:    b948        H.      CBNZ     r0,0x8002638 ; osKernelInitialize + 28
        0x08002624:    f7fffd6a    ..j.    BL       __get_PRIMASK ; 0x80020fc
        0x08002628:    b930        0.      CBNZ     r0,0x8002638 ; osKernelInitialize + 28
        0x0800262a:    480b        .H      LDR      r0,[pc,#44] ; [0x8002658] = 0x2000006c
        0x0800262c:    6800        .h      LDR      r0,[r0,#0]
        0x0800262e:    2802        .(      CMP      r0,#2
        0x08002630:    d105        ..      BNE      0x800263e ; osKernelInitialize + 34
        0x08002632:    f7fffd5d    ..].    BL       __get_BASEPRI ; 0x80020f0
        0x08002636:    b110        ..      CBZ      r0,0x800263e ; osKernelInitialize + 34
        0x08002638:    f06f0405    o...    MVN      r4,#5
        0x0800263c:    e009        ..      B        0x8002652 ; osKernelInitialize + 54
        0x0800263e:    4806        .H      LDR      r0,[pc,#24] ; [0x8002658] = 0x2000006c
        0x08002640:    6800        .h      LDR      r0,[r0,#0]
        0x08002642:    b920         .      CBNZ     r0,0x800264e ; osKernelInitialize + 50
        0x08002644:    2001        .       MOVS     r0,#1
        0x08002646:    4904        .I      LDR      r1,[pc,#16] ; [0x8002658] = 0x2000006c
        0x08002648:    6008        .`      STR      r0,[r1,#0]
        0x0800264a:    2400        .$      MOVS     r4,#0
        0x0800264c:    e001        ..      B        0x8002652 ; osKernelInitialize + 54
        0x0800264e:    f04f34ff    O..4    MOV      r4,#0xffffffff
        0x08002652:    4620         F      MOV      r0,r4
        0x08002654:    bd10        ..      POP      {r4,pc}
    $d
        0x08002656:    0000        ..      DCW    0
        0x08002658:    2000006c    l..     DCD    536871020
    $t
    i.osKernelStart
    osKernelStart
        0x0800265c:    b510        ..      PUSH     {r4,lr}
        0x0800265e:    f7fffd4a    ..J.    BL       __get_IPSR ; 0x80020f6
        0x08002662:    b948        H.      CBNZ     r0,0x8002678 ; osKernelStart + 28
        0x08002664:    f7fffd4a    ..J.    BL       __get_PRIMASK ; 0x80020fc
        0x08002668:    b930        0.      CBNZ     r0,0x8002678 ; osKernelStart + 28
        0x0800266a:    480c        .H      LDR      r0,[pc,#48] ; [0x800269c] = 0x2000006c
        0x0800266c:    6800        .h      LDR      r0,[r0,#0]
        0x0800266e:    2802        .(      CMP      r0,#2
        0x08002670:    d105        ..      BNE      0x800267e ; osKernelStart + 34
        0x08002672:    f7fffd3d    ..=.    BL       __get_BASEPRI ; 0x80020f0
        0x08002676:    b110        ..      CBZ      r0,0x800267e ; osKernelStart + 34
        0x08002678:    f06f0405    o...    MVN      r4,#5
        0x0800267c:    e00c        ..      B        0x8002698 ; osKernelStart + 60
        0x0800267e:    4807        .H      LDR      r0,[pc,#28] ; [0x800269c] = 0x2000006c
        0x08002680:    6800        .h      LDR      r0,[r0,#0]
        0x08002682:    2801        .(      CMP      r0,#1
        0x08002684:    d106        ..      BNE      0x8002694 ; osKernelStart + 56
        0x08002686:    2002        .       MOVS     r0,#2
        0x08002688:    4904        .I      LDR      r1,[pc,#16] ; [0x800269c] = 0x2000006c
        0x0800268a:    6008        .`      STR      r0,[r1,#0]
        0x0800268c:    f001f90a    ....    BL       vTaskStartScheduler ; 0x80038a4
        0x08002690:    2400        .$      MOVS     r4,#0
        0x08002692:    e001        ..      B        0x8002698 ; osKernelStart + 60
        0x08002694:    f04f34ff    O..4    MOV      r4,#0xffffffff
        0x08002698:    4620         F      MOV      r0,r4
        0x0800269a:    bd10        ..      POP      {r4,pc}
    $d
        0x0800269c:    2000006c    l..     DCD    536871020
    $t
    i.osThreadNew
    osThreadNew
        0x080026a0:    e92d47f0    -..G    PUSH     {r4-r10,lr}
        0x080026a4:    b086        ..      SUB      sp,sp,#0x18
        0x080026a6:    4680        .F      MOV      r8,r0
        0x080026a8:    4689        .F      MOV      r9,r1
        0x080026aa:    4614        .F      MOV      r4,r2
        0x080026ac:    2000        .       MOVS     r0,#0
        0x080026ae:    9004        ..      STR      r0,[sp,#0x10]
        0x080026b0:    f7fffd21    ..!.    BL       __get_IPSR ; 0x80020f6
        0x080026b4:    2800        .(      CMP      r0,#0
        0x080026b6:    d15d        ].      BNE      0x8002774 ; osThreadNew + 212
        0x080026b8:    f7fffd20    .. .    BL       __get_PRIMASK ; 0x80020fc
        0x080026bc:    2800        .(      CMP      r0,#0
        0x080026be:    d159        Y.      BNE      0x8002774 ; osThreadNew + 212
        0x080026c0:    482d        -H      LDR      r0,[pc,#180] ; [0x8002778] = 0x2000006c
        0x080026c2:    6800        .h      LDR      r0,[r0,#0]
        0x080026c4:    2802        .(      CMP      r0,#2
        0x080026c6:    d103        ..      BNE      0x80026d0 ; osThreadNew + 48
        0x080026c8:    f7fffd12    ....    BL       __get_BASEPRI ; 0x80020f0
        0x080026cc:    2800        .(      CMP      r0,#0
        0x080026ce:    d151        Q.      BNE      0x8002774 ; osThreadNew + 212
        0x080026d0:    f1b80f00    ....    CMP      r8,#0
        0x080026d4:    d04e        N.      BEQ      0x8002774 ; osThreadNew + 212
        0x080026d6:    2680        .&      MOVS     r6,#0x80
        0x080026d8:    2518        .%      MOVS     r5,#0x18
        0x080026da:    2000        .       MOVS     r0,#0
        0x080026dc:    9005        ..      STR      r0,[sp,#0x14]
        0x080026de:    f10d0a14    ....    ADD      r10,sp,#0x14
        0x080026e2:    1e47        G.      SUBS     r7,r0,#1
        0x080026e4:    b344        D.      CBZ      r4,0x8002738 ; osThreadNew + 152
        0x080026e6:    6820         h      LDR      r0,[r4,#0]
        0x080026e8:    b108        ..      CBZ      r0,0x80026ee ; osThreadNew + 78
        0x080026ea:    f8d4a000    ....    LDR      r10,[r4,#0]
        0x080026ee:    69a0        .i      LDR      r0,[r4,#0x18]
        0x080026f0:    b100        ..      CBZ      r0,0x80026f4 ; osThreadNew + 84
        0x080026f2:    69a5        .i      LDR      r5,[r4,#0x18]
        0x080026f4:    b12d        -.      CBZ      r5,0x8002702 ; osThreadNew + 98
        0x080026f6:    2d38        8-      CMP      r5,#0x38
        0x080026f8:    d803        ..      BHI      0x8002702 ; osThreadNew + 98
        0x080026fa:    7920         y      LDRB     r0,[r4,#4]
        0x080026fc:    f0000001    ....    AND      r0,r0,#1
        0x08002700:    b118        ..      CBZ      r0,0x800270a ; osThreadNew + 106
        0x08002702:    2000        .       MOVS     r0,#0
        0x08002704:    b006        ..      ADD      sp,sp,#0x18
        0x08002706:    e8bd87f0    ....    POP      {r4-r10,pc}
        0x0800270a:    6960        `i      LDR      r0,[r4,#0x14]
        0x0800270c:    b108        ..      CBZ      r0,0x8002712 ; osThreadNew + 114
        0x0800270e:    6960        `i      LDR      r0,[r4,#0x14]
        0x08002710:    0886        ..      LSRS     r6,r0,#2
        0x08002712:    68a0        .h      LDR      r0,[r4,#8]
        0x08002714:    b140        @.      CBZ      r0,0x8002728 ; osThreadNew + 136
        0x08002716:    68e0        .h      LDR      r0,[r4,#0xc]
        0x08002718:    285c        \(      CMP      r0,#0x5c
        0x0800271a:    d305        ..      BCC      0x8002728 ; osThreadNew + 136
        0x0800271c:    6920         i      LDR      r0,[r4,#0x10]
        0x0800271e:    b118        ..      CBZ      r0,0x8002728 ; osThreadNew + 136
        0x08002720:    6960        `i      LDR      r0,[r4,#0x14]
        0x08002722:    b108        ..      CBZ      r0,0x8002728 ; osThreadNew + 136
        0x08002724:    2701        .'      MOVS     r7,#1
        0x08002726:    e008        ..      B        0x800273a ; osThreadNew + 154
        0x08002728:    68a0        .h      LDR      r0,[r4,#8]
        0x0800272a:    b930        0.      CBNZ     r0,0x800273a ; osThreadNew + 154
        0x0800272c:    68e0        .h      LDR      r0,[r4,#0xc]
        0x0800272e:    b920         .      CBNZ     r0,0x800273a ; osThreadNew + 154
        0x08002730:    6920         i      LDR      r0,[r4,#0x10]
        0x08002732:    b910        ..      CBNZ     r0,0x800273a ; osThreadNew + 154
        0x08002734:    2700        .'      MOVS     r7,#0
        0x08002736:    e000        ..      B        0x800273a ; osThreadNew + 154
        0x08002738:    2700        .'      MOVS     r7,#0
        0x0800273a:    2f01        ./      CMP      r7,#1
        0x0800273c:    d10c        ..      BNE      0x8002758 ; osThreadNew + 184
        0x0800273e:    6921        !i      LDR      r1,[r4,#0x10]
        0x08002740:    68a0        .h      LDR      r0,[r4,#8]
        0x08002742:    464b        KF      MOV      r3,r9
        0x08002744:    4632        2F      MOV      r2,r6
        0x08002746:    e9cd5100    ...Q    STRD     r5,r1,[sp,#0]
        0x0800274a:    9002        ..      STR      r0,[sp,#8]
        0x0800274c:    4651        QF      MOV      r1,r10
        0x0800274e:    4640        @F      MOV      r0,r8
        0x08002750:    f001fd08    ....    BL       xTaskCreateStatic ; 0x8004164
        0x08002754:    9004        ..      STR      r0,[sp,#0x10]
        0x08002756:    e00d        ..      B        0x8002774 ; osThreadNew + 212
        0x08002758:    b967        g.      CBNZ     r7,0x8002774 ; osThreadNew + 212
        0x0800275a:    a804        ..      ADD      r0,sp,#0x10
        0x0800275c:    b2b2        ..      UXTH     r2,r6
        0x0800275e:    464b        KF      MOV      r3,r9
        0x08002760:    4651        QF      MOV      r1,r10
        0x08002762:    e9cd5000    ...P    STRD     r5,r0,[sp,#0]
        0x08002766:    4640        @F      MOV      r0,r8
        0x08002768:    f001fcca    ....    BL       xTaskCreate ; 0x8004100
        0x0800276c:    2801        .(      CMP      r0,#1
        0x0800276e:    d001        ..      BEQ      0x8002774 ; osThreadNew + 212
        0x08002770:    2000        .       MOVS     r0,#0
        0x08002772:    9004        ..      STR      r0,[sp,#0x10]
        0x08002774:    9804        ..      LDR      r0,[sp,#0x10]
        0x08002776:    e7c5        ..      B        0x8002704 ; osThreadNew + 100
    $d
        0x08002778:    2000006c    l..     DCD    536871020
    $t
    i.prvAddCurrentTaskToDelayedList
    prvAddCurrentTaskToDelayedList
        0x0800277c:    e92d41f0    -..A    PUSH     {r4-r8,lr}
        0x08002780:    4605        .F      MOV      r5,r0
        0x08002782:    460e        .F      MOV      r6,r1
        0x08002784:    4816        .H      LDR      r0,[pc,#88] ; [0x80027e0] = 0x20000030
        0x08002786:    6807        .h      LDR      r7,[r0,#0]
        0x08002788:    4816        .H      LDR      r0,[pc,#88] ; [0x80027e4] = 0x2000001c
        0x0800278a:    6800        .h      LDR      r0,[r0,#0]
        0x0800278c:    1d00        ..      ADDS     r0,r0,#4
        0x0800278e:    f000fe8d    ....    BL       uxListRemove ; 0x80034ac
        0x08002792:    1c68        h.      ADDS     r0,r5,#1
        0x08002794:    b938        8.      CBNZ     r0,0x80027a6 ; prvAddCurrentTaskToDelayedList + 42
        0x08002796:    b136        6.      CBZ      r6,0x80027a6 ; prvAddCurrentTaskToDelayedList + 42
        0x08002798:    4812        .H      LDR      r0,[pc,#72] ; [0x80027e4] = 0x2000001c
        0x0800279a:    6801        .h      LDR      r1,[r0,#0]
        0x0800279c:    1d09        ..      ADDS     r1,r1,#4
        0x0800279e:    4812        .H      LDR      r0,[pc,#72] ; [0x80027e8] = 0x20000a60
        0x080027a0:    f000feda    ....    BL       vListInsertEnd ; 0x8003558
        0x080027a4:    e01a        ..      B        0x80027dc ; prvAddCurrentTaskToDelayedList + 96
        0x080027a6:    197c        |.      ADDS     r4,r7,r5
        0x080027a8:    480e        .H      LDR      r0,[pc,#56] ; [0x80027e4] = 0x2000001c
        0x080027aa:    6800        .h      LDR      r0,[r0,#0]
        0x080027ac:    6044        D`      STR      r4,[r0,#4]
        0x080027ae:    42bc        .B      CMP      r4,r7
        0x080027b0:    d207        ..      BCS      0x80027c2 ; prvAddCurrentTaskToDelayedList + 70
        0x080027b2:    480c        .H      LDR      r0,[pc,#48] ; [0x80027e4] = 0x2000001c
        0x080027b4:    6801        .h      LDR      r1,[r0,#0]
        0x080027b6:    1d09        ..      ADDS     r1,r1,#4
        0x080027b8:    480c        .H      LDR      r0,[pc,#48] ; [0x80027ec] = 0x20000024
        0x080027ba:    6800        .h      LDR      r0,[r0,#0]
        0x080027bc:    f000feb2    ....    BL       vListInsert ; 0x8003524
        0x080027c0:    e00c        ..      B        0x80027dc ; prvAddCurrentTaskToDelayedList + 96
        0x080027c2:    4808        .H      LDR      r0,[pc,#32] ; [0x80027e4] = 0x2000001c
        0x080027c4:    6801        .h      LDR      r1,[r0,#0]
        0x080027c6:    1d09        ..      ADDS     r1,r1,#4
        0x080027c8:    4809        .H      LDR      r0,[pc,#36] ; [0x80027f0] = 0x20000020
        0x080027ca:    6800        .h      LDR      r0,[r0,#0]
        0x080027cc:    f000feaa    ....    BL       vListInsert ; 0x8003524
        0x080027d0:    4808        .H      LDR      r0,[pc,#32] ; [0x80027f4] = 0x2000004c
        0x080027d2:    6800        .h      LDR      r0,[r0,#0]
        0x080027d4:    4284        .B      CMP      r4,r0
        0x080027d6:    d201        ..      BCS      0x80027dc ; prvAddCurrentTaskToDelayedList + 96
        0x080027d8:    4806        .H      LDR      r0,[pc,#24] ; [0x80027f4] = 0x2000004c
        0x080027da:    6004        .`      STR      r4,[r0,#0]
        0x080027dc:    e8bd81f0    ....    POP      {r4-r8,pc}
    $d
        0x080027e0:    20000030    0..     DCD    536870960
        0x080027e4:    2000001c    ...     DCD    536870940
        0x080027e8:    20000a60    `..     DCD    536873568
        0x080027ec:    20000024    $..     DCD    536870948
        0x080027f0:    20000020     ..     DCD    536870944
        0x080027f4:    2000004c    L..     DCD    536870988
    $t
    i.prvAddNewTaskToReadyList
    prvAddNewTaskToReadyList
        0x080027f8:    b510        ..      PUSH     {r4,lr}
        0x080027fa:    4604        .F      MOV      r4,r0
        0x080027fc:    f000feb8    ....    BL       vPortEnterCritical ; 0x8003570
        0x08002800:    4824        $H      LDR      r0,[pc,#144] ; [0x8002894] = 0x2000002c
        0x08002802:    6800        .h      LDR      r0,[r0,#0]
        0x08002804:    1c40        @.      ADDS     r0,r0,#1
        0x08002806:    4923        #I      LDR      r1,[pc,#140] ; [0x8002894] = 0x2000002c
        0x08002808:    6008        .`      STR      r0,[r1,#0]
        0x0800280a:    4823        #H      LDR      r0,[pc,#140] ; [0x8002898] = 0x2000001c
        0x0800280c:    6800        .h      LDR      r0,[r0,#0]
        0x0800280e:    b940        @.      CBNZ     r0,0x8002822 ; prvAddNewTaskToReadyList + 42
        0x08002810:    4821        !H      LDR      r0,[pc,#132] ; [0x8002898] = 0x2000001c
        0x08002812:    6004        .`      STR      r4,[r0,#0]
        0x08002814:    4608        .F      MOV      r0,r1
        0x08002816:    6800        .h      LDR      r0,[r0,#0]
        0x08002818:    2801        .(      CMP      r0,#1
        0x0800281a:    d10d        ..      BNE      0x8002838 ; prvAddNewTaskToReadyList + 64
        0x0800281c:    f000f9f8    ....    BL       prvInitialiseTaskLists ; 0x8002c10
        0x08002820:    e00a        ..      B        0x8002838 ; prvAddNewTaskToReadyList + 64
        0x08002822:    481e        .H      LDR      r0,[pc,#120] ; [0x800289c] = 0x20000038
        0x08002824:    6800        .h      LDR      r0,[r0,#0]
        0x08002826:    b938        8.      CBNZ     r0,0x8002838 ; prvAddNewTaskToReadyList + 64
        0x08002828:    481b        .H      LDR      r0,[pc,#108] ; [0x8002898] = 0x2000001c
        0x0800282a:    6800        .h      LDR      r0,[r0,#0]
        0x0800282c:    6ac0        .j      LDR      r0,[r0,#0x2c]
        0x0800282e:    6ae1        .j      LDR      r1,[r4,#0x2c]
        0x08002830:    4288        .B      CMP      r0,r1
        0x08002832:    d801        ..      BHI      0x8002838 ; prvAddNewTaskToReadyList + 64
        0x08002834:    4818        .H      LDR      r0,[pc,#96] ; [0x8002898] = 0x2000001c
        0x08002836:    6004        .`      STR      r4,[r0,#0]
        0x08002838:    4819        .H      LDR      r0,[pc,#100] ; [0x80028a0] = 0x20000048
        0x0800283a:    6800        .h      LDR      r0,[r0,#0]
        0x0800283c:    1c40        @.      ADDS     r0,r0,#1
        0x0800283e:    4918        .I      LDR      r1,[pc,#96] ; [0x80028a0] = 0x20000048
        0x08002840:    6008        .`      STR      r0,[r1,#0]
        0x08002842:    4608        .F      MOV      r0,r1
        0x08002844:    6800        .h      LDR      r0,[r0,#0]
        0x08002846:    6460        `d      STR      r0,[r4,#0x44]
        0x08002848:    4916        .I      LDR      r1,[pc,#88] ; [0x80028a4] = 0x20000034
        0x0800284a:    6ae0        .j      LDR      r0,[r4,#0x2c]
        0x0800284c:    6809        .h      LDR      r1,[r1,#0]
        0x0800284e:    4288        .B      CMP      r0,r1
        0x08002850:    d902        ..      BLS      0x8002858 ; prvAddNewTaskToReadyList + 96
        0x08002852:    4914        .I      LDR      r1,[pc,#80] ; [0x80028a4] = 0x20000034
        0x08002854:    6ae0        .j      LDR      r0,[r4,#0x2c]
        0x08002856:    6008        .`      STR      r0,[r1,#0]
        0x08002858:    6ae1        .j      LDR      r1,[r4,#0x2c]
        0x0800285a:    eb010181    ....    ADD      r1,r1,r1,LSL #2
        0x0800285e:    4a12        .J      LDR      r2,[pc,#72] ; [0x80028a8] = 0x200005b0
        0x08002860:    eb020081    ....    ADD      r0,r2,r1,LSL #2
        0x08002864:    1d21        !.      ADDS     r1,r4,#4
        0x08002866:    f000fe77    ..w.    BL       vListInsertEnd ; 0x8003558
        0x0800286a:    f000feab    ....    BL       vPortExitCritical ; 0x80035c4
        0x0800286e:    480b        .H      LDR      r0,[pc,#44] ; [0x800289c] = 0x20000038
        0x08002870:    6800        .h      LDR      r0,[r0,#0]
        0x08002872:    b168        h.      CBZ      r0,0x8002890 ; prvAddNewTaskToReadyList + 152
        0x08002874:    4808        .H      LDR      r0,[pc,#32] ; [0x8002898] = 0x2000001c
        0x08002876:    6800        .h      LDR      r0,[r0,#0]
        0x08002878:    6ac0        .j      LDR      r0,[r0,#0x2c]
        0x0800287a:    6ae1        .j      LDR      r1,[r4,#0x2c]
        0x0800287c:    4288        .B      CMP      r0,r1
        0x0800287e:    d207        ..      BCS      0x8002890 ; prvAddNewTaskToReadyList + 152
        0x08002880:    f04f5080    O..P    MOV      r0,#0x10000000
        0x08002884:    4909        .I      LDR      r1,[pc,#36] ; [0x80028ac] = 0xe000ed04
        0x08002886:    6008        .`      STR      r0,[r1,#0]
        0x08002888:    f3bf8f4f    ..O.    DSB      
        0x0800288c:    f3bf8f6f    ..o.    ISB      
        0x08002890:    bd10        ..      POP      {r4,pc}
    $d
        0x08002892:    0000        ..      DCW    0
        0x08002894:    2000002c    ,..     DCD    536870956
        0x08002898:    2000001c    ...     DCD    536870940
        0x0800289c:    20000038    8..     DCD    536870968
        0x080028a0:    20000048    H..     DCD    536870984
        0x080028a4:    20000034    4..     DCD    536870964
        0x080028a8:    200005b0    ...     DCD    536872368
        0x080028ac:    e000ed04    ....    DCD    3758157060
    $t
    i.prvCheckForValidListAndQueue
    prvCheckForValidListAndQueue
        0x080028b0:    b508        ..      PUSH     {r3,lr}
        0x080028b2:    f000fe5d    ..].    BL       vPortEnterCritical ; 0x8003570
        0x080028b6:    4812        .H      LDR      r0,[pc,#72] ; [0x8002900] = 0x20000060
        0x080028b8:    6800        .h      LDR      r0,[r0,#0]
        0x080028ba:    b9e8        ..      CBNZ     r0,0x80028f8 ; prvCheckForValidListAndQueue + 72
        0x080028bc:    4811        .H      LDR      r0,[pc,#68] ; [0x8002904] = 0x20000a74
        0x080028be:    f000fe21    ..!.    BL       vListInitialise ; 0x8003504
        0x080028c2:    4811        .H      LDR      r0,[pc,#68] ; [0x8002908] = 0x20000a88
        0x080028c4:    f000fe1e    ....    BL       vListInitialise ; 0x8003504
        0x080028c8:    480e        .H      LDR      r0,[pc,#56] ; [0x8002904] = 0x20000a74
        0x080028ca:    4910        .I      LDR      r1,[pc,#64] ; [0x800290c] = 0x20000058
        0x080028cc:    6008        .`      STR      r0,[r1,#0]
        0x080028ce:    480e        .H      LDR      r0,[pc,#56] ; [0x8002908] = 0x20000a88
        0x080028d0:    490f        .I      LDR      r1,[pc,#60] ; [0x8002910] = 0x2000005c
        0x080028d2:    6008        .`      STR      r0,[r1,#0]
        0x080028d4:    2000        .       MOVS     r0,#0
        0x080028d6:    4b0f        .K      LDR      r3,[pc,#60] ; [0x8002914] = 0x20000a9c
        0x080028d8:    4a0f        .J      LDR      r2,[pc,#60] ; [0x8002918] = 0x20000aec
        0x080028da:    2110        .!      MOVS     r1,#0x10
        0x080028dc:    9000        ..      STR      r0,[sp,#0]
        0x080028de:    200a        .       MOVS     r0,#0xa
        0x080028e0:    f001f908    ....    BL       xQueueGenericCreateStatic ; 0x8003af4
        0x080028e4:    4906        .I      LDR      r1,[pc,#24] ; [0x8002900] = 0x20000060
        0x080028e6:    6008        .`      STR      r0,[r1,#0]
        0x080028e8:    4608        .F      MOV      r0,r1
        0x080028ea:    6800        .h      LDR      r0,[r0,#0]
        0x080028ec:    b120         .      CBZ      r0,0x80028f8 ; prvCheckForValidListAndQueue + 72
        0x080028ee:    a10b        ..      ADR      r1,{pc}+0x2e ; 0x800291c
        0x080028f0:    4803        .H      LDR      r0,[pc,#12] ; [0x8002900] = 0x20000060
        0x080028f2:    6800        .h      LDR      r0,[r0,#0]
        0x080028f4:    f000ff1e    ....    BL       vQueueAddToRegistry ; 0x8003734
        0x080028f8:    f000fe64    ..d.    BL       vPortExitCritical ; 0x80035c4
        0x080028fc:    bd08        ..      POP      {r3,pc}
    $d
        0x080028fe:    0000        ..      DCW    0
        0x08002900:    20000060    `..     DCD    536871008
        0x08002904:    20000a74    t..     DCD    536873588
        0x08002908:    20000a88    ...     DCD    536873608
        0x0800290c:    20000058    X..     DCD    536871000
        0x08002910:    2000005c    \..     DCD    536871004
        0x08002914:    20000a9c    ...     DCD    536873628
        0x08002918:    20000aec    ...     DCD    536873708
        0x0800291c:    51726d54    TmrQ    DCD    1366453588
        0x08002920:    00000000    ....    DCD    0
    $t
    i.prvCheckTasksWaitingTermination
    prvCheckTasksWaitingTermination
        0x08002924:    b510        ..      PUSH     {r4,lr}
        0x08002926:    e016        ..      B        0x8002956 ; prvCheckTasksWaitingTermination + 50
        0x08002928:    f000fe22    ..".    BL       vPortEnterCritical ; 0x8003570
        0x0800292c:    480c        .H      LDR      r0,[pc,#48] ; [0x8002960] = 0x20000a4c
        0x0800292e:    68c0        .h      LDR      r0,[r0,#0xc]
        0x08002930:    68c4        .h      LDR      r4,[r0,#0xc]
        0x08002932:    1d20         .      ADDS     r0,r4,#4
        0x08002934:    f000fdba    ....    BL       uxListRemove ; 0x80034ac
        0x08002938:    480a        .H      LDR      r0,[pc,#40] ; [0x8002964] = 0x2000002c
        0x0800293a:    6800        .h      LDR      r0,[r0,#0]
        0x0800293c:    1e40        @.      SUBS     r0,r0,#1
        0x0800293e:    4909        .I      LDR      r1,[pc,#36] ; [0x8002964] = 0x2000002c
        0x08002940:    6008        .`      STR      r0,[r1,#0]
        0x08002942:    4809        .H      LDR      r0,[pc,#36] ; [0x8002968] = 0x20000028
        0x08002944:    6800        .h      LDR      r0,[r0,#0]
        0x08002946:    1e40        @.      SUBS     r0,r0,#1
        0x08002948:    4907        .I      LDR      r1,[pc,#28] ; [0x8002968] = 0x20000028
        0x0800294a:    6008        .`      STR      r0,[r1,#0]
        0x0800294c:    f000fe3a    ..:.    BL       vPortExitCritical ; 0x80035c4
        0x08002950:    4620         F      MOV      r0,r4
        0x08002952:    f000f85e    ..^.    BL       prvDeleteTCB ; 0x8002a12
        0x08002956:    4804        .H      LDR      r0,[pc,#16] ; [0x8002968] = 0x20000028
        0x08002958:    6800        .h      LDR      r0,[r0,#0]
        0x0800295a:    2800        .(      CMP      r0,#0
        0x0800295c:    d1e4        ..      BNE      0x8002928 ; prvCheckTasksWaitingTermination + 4
        0x0800295e:    bd10        ..      POP      {r4,pc}
    $d
        0x08002960:    20000a4c    L..     DCD    536873548
        0x08002964:    2000002c    ,..     DCD    536870956
        0x08002968:    20000028    (..     DCD    536870952
    $t
    i.prvCopyDataFromQueue
    prvCopyDataFromQueue
        0x0800296c:    b570        p.      PUSH     {r4-r6,lr}
        0x0800296e:    4604        .F      MOV      r4,r0
        0x08002970:    460d        .F      MOV      r5,r1
        0x08002972:    6c20         l      LDR      r0,[r4,#0x40]
        0x08002974:    b170        p.      CBZ      r0,0x8002994 ; prvCopyDataFromQueue + 40
        0x08002976:    6c21        !l      LDR      r1,[r4,#0x40]
        0x08002978:    68e0        .h      LDR      r0,[r4,#0xc]
        0x0800297a:    4408        .D      ADD      r0,r0,r1
        0x0800297c:    60e0        .`      STR      r0,[r4,#0xc]
        0x0800297e:    6861        ah      LDR      r1,[r4,#4]
        0x08002980:    68e0        .h      LDR      r0,[r4,#0xc]
        0x08002982:    4288        .B      CMP      r0,r1
        0x08002984:    d301        ..      BCC      0x800298a ; prvCopyDataFromQueue + 30
        0x08002986:    6820         h      LDR      r0,[r4,#0]
        0x08002988:    60e0        .`      STR      r0,[r4,#0xc]
        0x0800298a:    4628        (F      MOV      r0,r5
        0x0800298c:    6c22        "l      LDR      r2,[r4,#0x40]
        0x0800298e:    68e1        .h      LDR      r1,[r4,#0xc]
        0x08002990:    f7fdfc62    ..b.    BL       __aeabi_memcpy ; 0x8000258
        0x08002994:    bd70        p.      POP      {r4-r6,pc}
    i.prvCopyDataToQueue
    prvCopyDataToQueue
        0x08002996:    e92d41f0    -..A    PUSH     {r4-r8,lr}
        0x0800299a:    4604        .F      MOV      r4,r0
        0x0800299c:    460f        .F      MOV      r7,r1
        0x0800299e:    4615        .F      MOV      r5,r2
        0x080029a0:    f04f0800    O...    MOV      r8,#0
        0x080029a4:    6ba6        .k      LDR      r6,[r4,#0x38]
        0x080029a6:    6c20         l      LDR      r0,[r4,#0x40]
        0x080029a8:    b940        @.      CBNZ     r0,0x80029bc ; prvCopyDataToQueue + 38
        0x080029aa:    6820         h      LDR      r0,[r4,#0]
        0x080029ac:    bb60        `.      CBNZ     r0,0x8002a08 ; prvCopyDataToQueue + 114
        0x080029ae:    6860        `h      LDR      r0,[r4,#4]
        0x080029b0:    f001fcec    ....    BL       xTaskPriorityDisinherit ; 0x800438c
        0x080029b4:    4680        .F      MOV      r8,r0
        0x080029b6:    2000        .       MOVS     r0,#0
        0x080029b8:    6060        ``      STR      r0,[r4,#4]
        0x080029ba:    e025        %.      B        0x8002a08 ; prvCopyDataToQueue + 114
        0x080029bc:    b97d        }.      CBNZ     r5,0x80029de ; prvCopyDataToQueue + 72
        0x080029be:    4639        9F      MOV      r1,r7
        0x080029c0:    6c22        "l      LDR      r2,[r4,#0x40]
        0x080029c2:    68a0        .h      LDR      r0,[r4,#8]
        0x080029c4:    f7fdfc48    ..H.    BL       __aeabi_memcpy ; 0x8000258
        0x080029c8:    6c21        !l      LDR      r1,[r4,#0x40]
        0x080029ca:    68a0        .h      LDR      r0,[r4,#8]
        0x080029cc:    4408        .D      ADD      r0,r0,r1
        0x080029ce:    60a0        .`      STR      r0,[r4,#8]
        0x080029d0:    e9d41001    ....    LDRD     r1,r0,[r4,#4]
        0x080029d4:    4288        .B      CMP      r0,r1
        0x080029d6:    d317        ..      BCC      0x8002a08 ; prvCopyDataToQueue + 114
        0x080029d8:    6820         h      LDR      r0,[r4,#0]
        0x080029da:    60a0        .`      STR      r0,[r4,#8]
        0x080029dc:    e014        ..      B        0x8002a08 ; prvCopyDataToQueue + 114
        0x080029de:    4639        9F      MOV      r1,r7
        0x080029e0:    6c22        "l      LDR      r2,[r4,#0x40]
        0x080029e2:    68e0        .h      LDR      r0,[r4,#0xc]
        0x080029e4:    f7fdfc38    ..8.    BL       __aeabi_memcpy ; 0x8000258
        0x080029e8:    6c21        !l      LDR      r1,[r4,#0x40]
        0x080029ea:    68e0        .h      LDR      r0,[r4,#0xc]
        0x080029ec:    1a40        @.      SUBS     r0,r0,r1
        0x080029ee:    60e0        .`      STR      r0,[r4,#0xc]
        0x080029f0:    6821        !h      LDR      r1,[r4,#0]
        0x080029f2:    68e0        .h      LDR      r0,[r4,#0xc]
        0x080029f4:    4288        .B      CMP      r0,r1
        0x080029f6:    d203        ..      BCS      0x8002a00 ; prvCopyDataToQueue + 106
        0x080029f8:    6c21        !l      LDR      r1,[r4,#0x40]
        0x080029fa:    6860        `h      LDR      r0,[r4,#4]
        0x080029fc:    1a40        @.      SUBS     r0,r0,r1
        0x080029fe:    60e0        .`      STR      r0,[r4,#0xc]
        0x08002a00:    2d02        .-      CMP      r5,#2
        0x08002a02:    d101        ..      BNE      0x8002a08 ; prvCopyDataToQueue + 114
        0x08002a04:    b106        ..      CBZ      r6,0x8002a08 ; prvCopyDataToQueue + 114
        0x08002a06:    1e76        v.      SUBS     r6,r6,#1
        0x08002a08:    1c70        p.      ADDS     r0,r6,#1
        0x08002a0a:    63a0        .c      STR      r0,[r4,#0x38]
        0x08002a0c:    4640        @F      MOV      r0,r8
        0x08002a0e:    e8bd81f0    ....    POP      {r4-r8,pc}
    i.prvDeleteTCB
    prvDeleteTCB
        0x08002a12:    b510        ..      PUSH     {r4,lr}
        0x08002a14:    4604        .F      MOV      r4,r0
        0x08002a16:    f8940059    ..Y.    LDRB     r0,[r4,#0x59]
        0x08002a1a:    b930        0.      CBNZ     r0,0x8002a2a ; prvDeleteTCB + 24
        0x08002a1c:    6b20         k      LDR      r0,[r4,#0x30]
        0x08002a1e:    f000fdef    ....    BL       vPortFree ; 0x8003600
        0x08002a22:    4620         F      MOV      r0,r4
        0x08002a24:    f000fdec    ....    BL       vPortFree ; 0x8003600
        0x08002a28:    e01a        ..      B        0x8002a60 ; prvDeleteTCB + 78
        0x08002a2a:    f8940059    ..Y.    LDRB     r0,[r4,#0x59]
        0x08002a2e:    2801        .(      CMP      r0,#1
        0x08002a30:    d103        ..      BNE      0x8002a3a ; prvDeleteTCB + 40
        0x08002a32:    4620         F      MOV      r0,r4
        0x08002a34:    f000fde4    ....    BL       vPortFree ; 0x8003600
        0x08002a38:    e012        ..      B        0x8002a60 ; prvDeleteTCB + 78
        0x08002a3a:    f8940059    ..Y.    LDRB     r0,[r4,#0x59]
        0x08002a3e:    2802        .(      CMP      r0,#2
        0x08002a40:    d101        ..      BNE      0x8002a46 ; prvDeleteTCB + 52
        0x08002a42:    2001        .       MOVS     r0,#1
        0x08002a44:    e000        ..      B        0x8002a48 ; prvDeleteTCB + 54
        0x08002a46:    2000        .       MOVS     r0,#0
        0x08002a48:    b950        P.      CBNZ     r0,0x8002a60 ; prvDeleteTCB + 78
        0x08002a4a:    bf00        ..      NOP      
        0x08002a4c:    2050        P       MOVS     r0,#0x50
        0x08002a4e:    f3808811    ....    MSR      BASEPRI,r0
        0x08002a52:    f3bf8f4f    ..O.    DSB      
        0x08002a56:    f3bf8f6f    ..o.    ISB      
        0x08002a5a:    bf00        ..      NOP      
        0x08002a5c:    bf00        ..      NOP      
        0x08002a5e:    e7fe        ..      B        0x8002a5e ; prvDeleteTCB + 76
        0x08002a60:    bd10        ..      POP      {r4,pc}
        0x08002a62:    0000        ..      MOVS     r0,r0
    i.prvGetNextExpireTime
    prvGetNextExpireTime
        0x08002a64:    4601        .F      MOV      r1,r0
        0x08002a66:    4a08        .J      LDR      r2,[pc,#32] ; [0x8002a88] = 0x20000058
        0x08002a68:    6812        .h      LDR      r2,[r2,#0]
        0x08002a6a:    6812        .h      LDR      r2,[r2,#0]
        0x08002a6c:    b90a        ..      CBNZ     r2,0x8002a72 ; prvGetNextExpireTime + 14
        0x08002a6e:    2201        ."      MOVS     r2,#1
        0x08002a70:    e000        ..      B        0x8002a74 ; prvGetNextExpireTime + 16
        0x08002a72:    2200        ."      MOVS     r2,#0
        0x08002a74:    600a        .`      STR      r2,[r1,#0]
        0x08002a76:    680a        .h      LDR      r2,[r1,#0]
        0x08002a78:    b922        ".      CBNZ     r2,0x8002a84 ; prvGetNextExpireTime + 32
        0x08002a7a:    4a03        .J      LDR      r2,[pc,#12] ; [0x8002a88] = 0x20000058
        0x08002a7c:    6812        .h      LDR      r2,[r2,#0]
        0x08002a7e:    68d2        .h      LDR      r2,[r2,#0xc]
        0x08002a80:    6810        .h      LDR      r0,[r2,#0]
        0x08002a82:    e000        ..      B        0x8002a86 ; prvGetNextExpireTime + 34
        0x08002a84:    2000        .       MOVS     r0,#0
        0x08002a86:    4770        pG      BX       lr
    $d
        0x08002a88:    20000058    X..     DCD    536871000
    $t
    i.prvHeapInit
    prvHeapInit
        0x08002a8c:    b530        0.      PUSH     {r4,r5,lr}
        0x08002a8e:    f44f6340    O.@c    MOV      r3,#0xc00
        0x08002a92:    4817        .H      LDR      r0,[pc,#92] ; [0x8002af0] = 0x20001244
        0x08002a94:    f0000407    ....    AND      r4,r0,#7
        0x08002a98:    b12c        ,.      CBZ      r4,0x8002aa6 ; prvHeapInit + 26
        0x08002a9a:    1dc0        ..      ADDS     r0,r0,#7
        0x08002a9c:    f0200007     ...    BIC      r0,r0,#7
        0x08002aa0:    4c13        .L      LDR      r4,[pc,#76] ; [0x8002af0] = 0x20001244
        0x08002aa2:    1b04        ..      SUBS     r4,r0,r4
        0x08002aa4:    1b1b        ..      SUBS     r3,r3,r4
        0x08002aa6:    4602        .F      MOV      r2,r0
        0x08002aa8:    4c12        .L      LDR      r4,[pc,#72] ; [0x8002af4] = 0x20000070
        0x08002aaa:    6022        "`      STR      r2,[r4,#0]
        0x08002aac:    2400        .$      MOVS     r4,#0
        0x08002aae:    4d11        .M      LDR      r5,[pc,#68] ; [0x8002af4] = 0x20000070
        0x08002ab0:    606c        l`      STR      r4,[r5,#4]
        0x08002ab2:    18d0        ..      ADDS     r0,r2,r3
        0x08002ab4:    3808        .8      SUBS     r0,r0,#8
        0x08002ab6:    f0200007     ...    BIC      r0,r0,#7
        0x08002aba:    4c0f        .L      LDR      r4,[pc,#60] ; [0x8002af8] = 0x20000078
        0x08002abc:    6020         `      STR      r0,[r4,#0]
        0x08002abe:    2400        .$      MOVS     r4,#0
        0x08002ac0:    4d0d        .M      LDR      r5,[pc,#52] ; [0x8002af8] = 0x20000078
        0x08002ac2:    682d        -h      LDR      r5,[r5,#0]
        0x08002ac4:    606c        l`      STR      r4,[r5,#4]
        0x08002ac6:    4d0c        .M      LDR      r5,[pc,#48] ; [0x8002af8] = 0x20000078
        0x08002ac8:    682d        -h      LDR      r5,[r5,#0]
        0x08002aca:    602c        ,`      STR      r4,[r5,#0]
        0x08002acc:    4611        .F      MOV      r1,r2
        0x08002ace:    1a44        D.      SUBS     r4,r0,r1
        0x08002ad0:    604c        L`      STR      r4,[r1,#4]
        0x08002ad2:    4c09        .L      LDR      r4,[pc,#36] ; [0x8002af8] = 0x20000078
        0x08002ad4:    6824        $h      LDR      r4,[r4,#0]
        0x08002ad6:    600c        .`      STR      r4,[r1,#0]
        0x08002ad8:    4d08        .M      LDR      r5,[pc,#32] ; [0x8002afc] = 0x20000080
        0x08002ada:    684c        Lh      LDR      r4,[r1,#4]
        0x08002adc:    602c        ,`      STR      r4,[r5,#0]
        0x08002ade:    4d08        .M      LDR      r5,[pc,#32] ; [0x8002b00] = 0x2000007c
        0x08002ae0:    684c        Lh      LDR      r4,[r1,#4]
        0x08002ae2:    602c        ,`      STR      r4,[r5,#0]
        0x08002ae4:    f04f4400    O..D    MOV      r4,#0x80000000
        0x08002ae8:    4d06        .M      LDR      r5,[pc,#24] ; [0x8002b04] = 0x20000084
        0x08002aea:    602c        ,`      STR      r4,[r5,#0]
        0x08002aec:    bd30        0.      POP      {r4,r5,pc}
    $d
        0x08002aee:    0000        ..      DCW    0
        0x08002af0:    20001244    D..     DCD    536875588
        0x08002af4:    20000070    p..     DCD    536871024
        0x08002af8:    20000078    x..     DCD    536871032
        0x08002afc:    20000080    ...     DCD    536871040
        0x08002b00:    2000007c    |..     DCD    536871036
        0x08002b04:    20000084    ...     DCD    536871044
    $t
    i.prvIdleTask
    prvIdleTask
        0x08002b08:    bf00        ..      NOP      
        0x08002b0a:    f7ffff0b    ....    BL       prvCheckTasksWaitingTermination ; 0x8002924
        0x08002b0e:    4806        .H      LDR      r0,[pc,#24] ; [0x8002b28] = 0x200005b0
        0x08002b10:    6800        .h      LDR      r0,[r0,#0]
        0x08002b12:    2801        .(      CMP      r0,#1
        0x08002b14:    d9f9        ..      BLS      0x8002b0a ; prvIdleTask + 2
        0x08002b16:    f04f5080    O..P    MOV      r0,#0x10000000
        0x08002b1a:    4904        .I      LDR      r1,[pc,#16] ; [0x8002b2c] = 0xe000ed04
        0x08002b1c:    6008        .`      STR      r0,[r1,#0]
        0x08002b1e:    f3bf8f4f    ..O.    DSB      
        0x08002b22:    f3bf8f6f    ..o.    ISB      
        0x08002b26:    e7f0        ..      B        0x8002b0a ; prvIdleTask + 2
    $d
        0x08002b28:    200005b0    ...     DCD    536872368
        0x08002b2c:    e000ed04    ....    DCD    3758157060
    $t
    i.prvInitialiseNewQueue
    prvInitialiseNewQueue
        0x08002b30:    e92d41f0    -..A    PUSH     {r4-r8,lr}
        0x08002b34:    4606        .F      MOV      r6,r0
        0x08002b36:    460d        .F      MOV      r5,r1
        0x08002b38:    4617        .F      MOV      r7,r2
        0x08002b3a:    4698        .F      MOV      r8,r3
        0x08002b3c:    9c06        ..      LDR      r4,[sp,#0x18]
        0x08002b3e:    b90d        ..      CBNZ     r5,0x8002b44 ; prvInitialiseNewQueue + 20
        0x08002b40:    6024        $`      STR      r4,[r4,#0]
        0x08002b42:    e000        ..      B        0x8002b46 ; prvInitialiseNewQueue + 22
        0x08002b44:    6027        '`      STR      r7,[r4,#0]
        0x08002b46:    63e6        .c      STR      r6,[r4,#0x3c]
        0x08002b48:    6425        %d      STR      r5,[r4,#0x40]
        0x08002b4a:    2101        .!      MOVS     r1,#1
        0x08002b4c:    4620         F      MOV      r0,r4
        0x08002b4e:    f001f841    ..A.    BL       xQueueGenericReset ; 0x8003bd4
        0x08002b52:    f884804c    ..L.    STRB     r8,[r4,#0x4c]
        0x08002b56:    e8bd81f0    ....    POP      {r4-r8,pc}
    i.prvInitialiseNewTask
    prvInitialiseNewTask
        0x08002b5a:    e92d5ff0    -.._    PUSH     {r4-r12,lr}
        0x08002b5e:    4682        .F      MOV      r10,r0
        0x08002b60:    460f        .F      MOV      r7,r1
        0x08002b62:    4690        .F      MOV      r8,r2
        0x08002b64:    469b        .F      MOV      r11,r3
        0x08002b66:    9e0a        ..      LDR      r6,[sp,#0x28]
        0x08002b68:    9c0c        ..      LDR      r4,[sp,#0x30]
        0x08002b6a:    ea4f0188    O...    LSL      r1,r8,#2
        0x08002b6e:    22a5        ."      MOVS     r2,#0xa5
        0x08002b70:    6b20         k      LDR      r0,[r4,#0x30]
        0x08002b72:    f7fdfb83    ....    BL       __aeabi_memset ; 0x800027c
        0x08002b76:    f1a80001    ....    SUB      r0,r8,#1
        0x08002b7a:    6b21        !k      LDR      r1,[r4,#0x30]
        0x08002b7c:    eb010980    ....    ADD      r9,r1,r0,LSL #2
        0x08002b80:    f0290907    )...    BIC      r9,r9,#7
        0x08002b84:    f0090007    ....    AND      r0,r9,#7
        0x08002b88:    b908        ..      CBNZ     r0,0x8002b8e ; prvInitialiseNewTask + 52
        0x08002b8a:    2001        .       MOVS     r0,#1
        0x08002b8c:    e000        ..      B        0x8002b90 ; prvInitialiseNewTask + 54
        0x08002b8e:    2000        .       MOVS     r0,#0
        0x08002b90:    b950        P.      CBNZ     r0,0x8002ba8 ; prvInitialiseNewTask + 78
        0x08002b92:    bf00        ..      NOP      
        0x08002b94:    2050        P       MOVS     r0,#0x50
        0x08002b96:    f3808811    ....    MSR      BASEPRI,r0
        0x08002b9a:    f3bf8f4f    ..O.    DSB      
        0x08002b9e:    f3bf8f6f    ..o.    ISB      
        0x08002ba2:    bf00        ..      NOP      
        0x08002ba4:    bf00        ..      NOP      
        0x08002ba6:    e7fe        ..      B        0x8002ba6 ; prvInitialiseNewTask + 76
        0x08002ba8:    2500        .%      MOVS     r5,#0
        0x08002baa:    e007        ..      B        0x8002bbc ; prvInitialiseNewTask + 98
        0x08002bac:    5d79        y]      LDRB     r1,[r7,r5]
        0x08002bae:    f1040034    ..4.    ADD      r0,r4,#0x34
        0x08002bb2:    5541        AU      STRB     r1,[r0,r5]
        0x08002bb4:    5d78        x]      LDRB     r0,[r7,r5]
        0x08002bb6:    b900        ..      CBNZ     r0,0x8002bba ; prvInitialiseNewTask + 96
        0x08002bb8:    e002        ..      B        0x8002bc0 ; prvInitialiseNewTask + 102
        0x08002bba:    1c6d        m.      ADDS     r5,r5,#1
        0x08002bbc:    2d10        .-      CMP      r5,#0x10
        0x08002bbe:    d3f5        ..      BCC      0x8002bac ; prvInitialiseNewTask + 82
        0x08002bc0:    bf00        ..      NOP      
        0x08002bc2:    2100        .!      MOVS     r1,#0
        0x08002bc4:    2043        C       MOVS     r0,#0x43
        0x08002bc6:    5501        .U      STRB     r1,[r0,r4]
        0x08002bc8:    2e38        8.      CMP      r6,#0x38
        0x08002bca:    d300        ..      BCC      0x8002bce ; prvInitialiseNewTask + 116
        0x08002bcc:    2637        7&      MOVS     r6,#0x37
        0x08002bce:    62e6        .b      STR      r6,[r4,#0x2c]
        0x08002bd0:    64e6        .d      STR      r6,[r4,#0x4c]
        0x08002bd2:    2000        .       MOVS     r0,#0
        0x08002bd4:    6520         e      STR      r0,[r4,#0x50]
        0x08002bd6:    1d20         .      ADDS     r0,r4,#4
        0x08002bd8:    f000fca1    ....    BL       vListInitialiseItem ; 0x800351e
        0x08002bdc:    f1040018    ....    ADD      r0,r4,#0x18
        0x08002be0:    f000fc9d    ....    BL       vListInitialiseItem ; 0x800351e
        0x08002be4:    6124        $a      STR      r4,[r4,#0x10]
        0x08002be6:    f1c60038    ..8.    RSB      r0,r6,#0x38
        0x08002bea:    61a0        .a      STR      r0,[r4,#0x18]
        0x08002bec:    6264        db      STR      r4,[r4,#0x24]
        0x08002bee:    2000        .       MOVS     r0,#0
        0x08002bf0:    6560        `e      STR      r0,[r4,#0x54]
        0x08002bf2:    f8840058    ..X.    STRB     r0,[r4,#0x58]
        0x08002bf6:    465a        ZF      MOV      r2,r11
        0x08002bf8:    4651        QF      MOV      r1,r10
        0x08002bfa:    4648        HF      MOV      r0,r9
        0x08002bfc:    f000fb42    ..B.    BL       pxPortInitialiseStack ; 0x8003284
        0x08002c00:    6020         `      STR      r0,[r4,#0]
        0x08002c02:    980b        ..      LDR      r0,[sp,#0x2c]
        0x08002c04:    b108        ..      CBZ      r0,0x8002c0a ; prvInitialiseNewTask + 176
        0x08002c06:    980b        ..      LDR      r0,[sp,#0x2c]
        0x08002c08:    6004        .`      STR      r4,[r0,#0]
        0x08002c0a:    e8bd9ff0    ....    POP      {r4-r12,pc}
        0x08002c0e:    0000        ..      MOVS     r0,r0
    i.prvInitialiseTaskLists
    prvInitialiseTaskLists
        0x08002c10:    b510        ..      PUSH     {r4,lr}
        0x08002c12:    2400        .$      MOVS     r4,#0
        0x08002c14:    e007        ..      B        0x8002c26 ; prvInitialiseTaskLists + 22
        0x08002c16:    eb040184    ....    ADD      r1,r4,r4,LSL #2
        0x08002c1a:    4a0f        .J      LDR      r2,[pc,#60] ; [0x8002c58] = 0x200005b0
        0x08002c1c:    eb020081    ....    ADD      r0,r2,r1,LSL #2
        0x08002c20:    f000fc70    ..p.    BL       vListInitialise ; 0x8003504
        0x08002c24:    1c64        d.      ADDS     r4,r4,#1
        0x08002c26:    2c38        8,      CMP      r4,#0x38
        0x08002c28:    d3f5        ..      BCC      0x8002c16 ; prvInitialiseTaskLists + 6
        0x08002c2a:    480c        .H      LDR      r0,[pc,#48] ; [0x8002c5c] = 0x20000a10
        0x08002c2c:    f000fc6a    ..j.    BL       vListInitialise ; 0x8003504
        0x08002c30:    480b        .H      LDR      r0,[pc,#44] ; [0x8002c60] = 0x20000a24
        0x08002c32:    f000fc67    ..g.    BL       vListInitialise ; 0x8003504
        0x08002c36:    480b        .H      LDR      r0,[pc,#44] ; [0x8002c64] = 0x20000a38
        0x08002c38:    f000fc64    ..d.    BL       vListInitialise ; 0x8003504
        0x08002c3c:    480a        .H      LDR      r0,[pc,#40] ; [0x8002c68] = 0x20000a4c
        0x08002c3e:    f000fc61    ..a.    BL       vListInitialise ; 0x8003504
        0x08002c42:    480a        .H      LDR      r0,[pc,#40] ; [0x8002c6c] = 0x20000a60
        0x08002c44:    f000fc5e    ..^.    BL       vListInitialise ; 0x8003504
        0x08002c48:    4804        .H      LDR      r0,[pc,#16] ; [0x8002c5c] = 0x20000a10
        0x08002c4a:    4909        .I      LDR      r1,[pc,#36] ; [0x8002c70] = 0x20000020
        0x08002c4c:    6008        .`      STR      r0,[r1,#0]
        0x08002c4e:    4804        .H      LDR      r0,[pc,#16] ; [0x8002c60] = 0x20000a24
        0x08002c50:    4908        .I      LDR      r1,[pc,#32] ; [0x8002c74] = 0x20000024
        0x08002c52:    6008        .`      STR      r0,[r1,#0]
        0x08002c54:    bd10        ..      POP      {r4,pc}
    $d
        0x08002c56:    0000        ..      DCW    0
        0x08002c58:    200005b0    ...     DCD    536872368
        0x08002c5c:    20000a10    ...     DCD    536873488
        0x08002c60:    20000a24    $..     DCD    536873508
        0x08002c64:    20000a38    8..     DCD    536873528
        0x08002c68:    20000a4c    L..     DCD    536873548
        0x08002c6c:    20000a60    `..     DCD    536873568
        0x08002c70:    20000020     ..     DCD    536870944
        0x08002c74:    20000024    $..     DCD    536870948
    $t
    i.prvInsertBlockIntoFreeList
    prvInsertBlockIntoFreeList
        0x08002c78:    b510        ..      PUSH     {r4,lr}
        0x08002c7a:    4601        .F      MOV      r1,r0
        0x08002c7c:    4816        .H      LDR      r0,[pc,#88] ; [0x8002cd8] = 0x20000070
        0x08002c7e:    e000        ..      B        0x8002c82 ; prvInsertBlockIntoFreeList + 10
        0x08002c80:    6800        .h      LDR      r0,[r0,#0]
        0x08002c82:    6803        .h      LDR      r3,[r0,#0]
        0x08002c84:    428b        .B      CMP      r3,r1
        0x08002c86:    d3fb        ..      BCC      0x8002c80 ; prvInsertBlockIntoFreeList + 8
        0x08002c88:    4602        .F      MOV      r2,r0
        0x08002c8a:    6843        Ch      LDR      r3,[r0,#4]
        0x08002c8c:    4413        .D      ADD      r3,r3,r2
        0x08002c8e:    428b        .B      CMP      r3,r1
        0x08002c90:    d104        ..      BNE      0x8002c9c ; prvInsertBlockIntoFreeList + 36
        0x08002c92:    6843        Ch      LDR      r3,[r0,#4]
        0x08002c94:    684c        Lh      LDR      r4,[r1,#4]
        0x08002c96:    4423        #D      ADD      r3,r3,r4
        0x08002c98:    6043        C`      STR      r3,[r0,#4]
        0x08002c9a:    4601        .F      MOV      r1,r0
        0x08002c9c:    460a        .F      MOV      r2,r1
        0x08002c9e:    684b        Kh      LDR      r3,[r1,#4]
        0x08002ca0:    4413        .D      ADD      r3,r3,r2
        0x08002ca2:    6804        .h      LDR      r4,[r0,#0]
        0x08002ca4:    42a3        .B      CMP      r3,r4
        0x08002ca6:    d111        ..      BNE      0x8002ccc ; prvInsertBlockIntoFreeList + 84
        0x08002ca8:    4c0c        .L      LDR      r4,[pc,#48] ; [0x8002cdc] = 0x20000078
        0x08002caa:    6803        .h      LDR      r3,[r0,#0]
        0x08002cac:    6824        $h      LDR      r4,[r4,#0]
        0x08002cae:    42a3        .B      CMP      r3,r4
        0x08002cb0:    d008        ..      BEQ      0x8002cc4 ; prvInsertBlockIntoFreeList + 76
        0x08002cb2:    684b        Kh      LDR      r3,[r1,#4]
        0x08002cb4:    6804        .h      LDR      r4,[r0,#0]
        0x08002cb6:    6864        dh      LDR      r4,[r4,#4]
        0x08002cb8:    4423        #D      ADD      r3,r3,r4
        0x08002cba:    604b        K`      STR      r3,[r1,#4]
        0x08002cbc:    6803        .h      LDR      r3,[r0,#0]
        0x08002cbe:    681b        .h      LDR      r3,[r3,#0]
        0x08002cc0:    600b        .`      STR      r3,[r1,#0]
        0x08002cc2:    e005        ..      B        0x8002cd0 ; prvInsertBlockIntoFreeList + 88
        0x08002cc4:    4b05        .K      LDR      r3,[pc,#20] ; [0x8002cdc] = 0x20000078
        0x08002cc6:    681b        .h      LDR      r3,[r3,#0]
        0x08002cc8:    600b        .`      STR      r3,[r1,#0]
        0x08002cca:    e001        ..      B        0x8002cd0 ; prvInsertBlockIntoFreeList + 88
        0x08002ccc:    6803        .h      LDR      r3,[r0,#0]
        0x08002cce:    600b        .`      STR      r3,[r1,#0]
        0x08002cd0:    4288        .B      CMP      r0,r1
        0x08002cd2:    d000        ..      BEQ      0x8002cd6 ; prvInsertBlockIntoFreeList + 94
        0x08002cd4:    6001        .`      STR      r1,[r0,#0]
        0x08002cd6:    bd10        ..      POP      {r4,pc}
    $d
        0x08002cd8:    20000070    p..     DCD    536871024
        0x08002cdc:    20000078    x..     DCD    536871032
    $t
    i.prvInsertTimerInActiveList
    prvInsertTimerInActiveList
        0x08002ce0:    e92d41f0    -..A    PUSH     {r4-r8,lr}
        0x08002ce4:    4604        .F      MOV      r4,r0
        0x08002ce6:    460d        .F      MOV      r5,r1
        0x08002ce8:    4616        .F      MOV      r6,r2
        0x08002cea:    461f        .F      MOV      r7,r3
        0x08002cec:    f04f0800    O...    MOV      r8,#0
        0x08002cf0:    6065        e`      STR      r5,[r4,#4]
        0x08002cf2:    6124        $a      STR      r4,[r4,#0x10]
        0x08002cf4:    42b5        .B      CMP      r5,r6
        0x08002cf6:    d80c        ..      BHI      0x8002d12 ; prvInsertTimerInActiveList + 50
        0x08002cf8:    1bf0        ..      SUBS     r0,r6,r7
        0x08002cfa:    69a1        .i      LDR      r1,[r4,#0x18]
        0x08002cfc:    4288        .B      CMP      r0,r1
        0x08002cfe:    d302        ..      BCC      0x8002d06 ; prvInsertTimerInActiveList + 38
        0x08002d00:    f04f0801    O...    MOV      r8,#1
        0x08002d04:    e011        ..      B        0x8002d2a ; prvInsertTimerInActiveList + 74
        0x08002d06:    1d21        !.      ADDS     r1,r4,#4
        0x08002d08:    4809        .H      LDR      r0,[pc,#36] ; [0x8002d30] = 0x2000005c
        0x08002d0a:    6800        .h      LDR      r0,[r0,#0]
        0x08002d0c:    f000fc0a    ....    BL       vListInsert ; 0x8003524
        0x08002d10:    e00b        ..      B        0x8002d2a ; prvInsertTimerInActiveList + 74
        0x08002d12:    42be        .B      CMP      r6,r7
        0x08002d14:    d204        ..      BCS      0x8002d20 ; prvInsertTimerInActiveList + 64
        0x08002d16:    42bd        .B      CMP      r5,r7
        0x08002d18:    d302        ..      BCC      0x8002d20 ; prvInsertTimerInActiveList + 64
        0x08002d1a:    f04f0801    O...    MOV      r8,#1
        0x08002d1e:    e004        ..      B        0x8002d2a ; prvInsertTimerInActiveList + 74
        0x08002d20:    1d21        !.      ADDS     r1,r4,#4
        0x08002d22:    4804        .H      LDR      r0,[pc,#16] ; [0x8002d34] = 0x20000058
        0x08002d24:    6800        .h      LDR      r0,[r0,#0]
        0x08002d26:    f000fbfd    ....    BL       vListInsert ; 0x8003524
        0x08002d2a:    4640        @F      MOV      r0,r8
        0x08002d2c:    e8bd81f0    ....    POP      {r4-r8,pc}
    $d
        0x08002d30:    2000005c    \..     DCD    536871004
        0x08002d34:    20000058    X..     DCD    536871000
    $t
    i.prvIsQueueEmpty
    prvIsQueueEmpty
        0x08002d38:    b570        p.      PUSH     {r4-r6,lr}
        0x08002d3a:    4605        .F      MOV      r5,r0
        0x08002d3c:    f000fc18    ....    BL       vPortEnterCritical ; 0x8003570
        0x08002d40:    6ba8        .k      LDR      r0,[r5,#0x38]
        0x08002d42:    b908        ..      CBNZ     r0,0x8002d48 ; prvIsQueueEmpty + 16
        0x08002d44:    2401        .$      MOVS     r4,#1
        0x08002d46:    e000        ..      B        0x8002d4a ; prvIsQueueEmpty + 18
        0x08002d48:    2400        .$      MOVS     r4,#0
        0x08002d4a:    f000fc3b    ..;.    BL       vPortExitCritical ; 0x80035c4
        0x08002d4e:    4620         F      MOV      r0,r4
        0x08002d50:    bd70        p.      POP      {r4-r6,pc}
    i.prvIsQueueFull
    prvIsQueueFull
        0x08002d52:    b570        p.      PUSH     {r4-r6,lr}
        0x08002d54:    4605        .F      MOV      r5,r0
        0x08002d56:    f000fc0b    ....    BL       vPortEnterCritical ; 0x8003570
        0x08002d5a:    6ba8        .k      LDR      r0,[r5,#0x38]
        0x08002d5c:    6be9        .k      LDR      r1,[r5,#0x3c]
        0x08002d5e:    4288        .B      CMP      r0,r1
        0x08002d60:    d101        ..      BNE      0x8002d66 ; prvIsQueueFull + 20
        0x08002d62:    2401        .$      MOVS     r4,#1
        0x08002d64:    e000        ..      B        0x8002d68 ; prvIsQueueFull + 22
        0x08002d66:    2400        .$      MOVS     r4,#0
        0x08002d68:    f000fc2c    ..,.    BL       vPortExitCritical ; 0x80035c4
        0x08002d6c:    4620         F      MOV      r0,r4
        0x08002d6e:    bd70        p.      POP      {r4-r6,pc}
    i.prvProcessExpiredTimer
    prvProcessExpiredTimer
        0x08002d70:    b5f8        ..      PUSH     {r3-r7,lr}
        0x08002d72:    4605        .F      MOV      r5,r0
        0x08002d74:    460f        .F      MOV      r7,r1
        0x08002d76:    4816        .H      LDR      r0,[pc,#88] ; [0x8002dd0] = 0x20000058
        0x08002d78:    6800        .h      LDR      r0,[r0,#0]
        0x08002d7a:    68c0        .h      LDR      r0,[r0,#0xc]
        0x08002d7c:    68c4        .h      LDR      r4,[r0,#0xc]
        0x08002d7e:    1d20         .      ADDS     r0,r4,#4
        0x08002d80:    f000fb94    ....    BL       uxListRemove ; 0x80034ac
        0x08002d84:    69e0        .i      LDR      r0,[r4,#0x1c]
        0x08002d86:    2801        .(      CMP      r0,#1
        0x08002d88:    d11d        ..      BNE      0x8002dc6 ; prvProcessExpiredTimer + 86
        0x08002d8a:    69a0        .i      LDR      r0,[r4,#0x18]
        0x08002d8c:    1941        A.      ADDS     r1,r0,r5
        0x08002d8e:    462b        +F      MOV      r3,r5
        0x08002d90:    463a        :F      MOV      r2,r7
        0x08002d92:    4620         F      MOV      r0,r4
        0x08002d94:    f7ffffa4    ....    BL       prvInsertTimerInActiveList ; 0x8002ce0
        0x08002d98:    b1a8        ..      CBZ      r0,0x8002dc6 ; prvProcessExpiredTimer + 86
        0x08002d9a:    2000        .       MOVS     r0,#0
        0x08002d9c:    4603        .F      MOV      r3,r0
        0x08002d9e:    462a        *F      MOV      r2,r5
        0x08002da0:    4601        .F      MOV      r1,r0
        0x08002da2:    9000        ..      STR      r0,[sp,#0]
        0x08002da4:    4620         F      MOV      r0,r4
        0x08002da6:    f001fc4d    ..M.    BL       xTimerGenericCommand ; 0x8004644
        0x08002daa:    4606        .F      MOV      r6,r0
        0x08002dac:    b956        V.      CBNZ     r6,0x8002dc4 ; prvProcessExpiredTimer + 84
        0x08002dae:    bf00        ..      NOP      
        0x08002db0:    2050        P       MOVS     r0,#0x50
        0x08002db2:    f3808811    ....    MSR      BASEPRI,r0
        0x08002db6:    f3bf8f4f    ..O.    DSB      
        0x08002dba:    f3bf8f6f    ..o.    ISB      
        0x08002dbe:    bf00        ..      NOP      
        0x08002dc0:    bf00        ..      NOP      
        0x08002dc2:    e7fe        ..      B        0x8002dc2 ; prvProcessExpiredTimer + 82
        0x08002dc4:    bf00        ..      NOP      
        0x08002dc6:    4620         F      MOV      r0,r4
        0x08002dc8:    6a61        aj      LDR      r1,[r4,#0x24]
        0x08002dca:    4788        .G      BLX      r1
        0x08002dcc:    bdf8        ..      POP      {r3-r7,pc}
    $d
        0x08002dce:    0000        ..      DCW    0
        0x08002dd0:    20000058    X..     DCD    536871000
    $t
    i.prvProcessReceivedCommands
    prvProcessReceivedCommands
        0x08002dd4:    b5f0        ..      PUSH     {r4-r7,lr}
        0x08002dd6:    b087        ..      SUB      sp,sp,#0x1c
        0x08002dd8:    e082        ..      B        0x8002ee0 ; prvProcessReceivedCommands + 268
        0x08002dda:    9803        ..      LDR      r0,[sp,#0xc]
        0x08002ddc:    2800        .(      CMP      r0,#0
        0x08002dde:    da11        ..      BGE      0x8002e04 ; prvProcessReceivedCommands + 48
        0x08002de0:    ae04        ..      ADD      r6,sp,#0x10
        0x08002de2:    b956        V.      CBNZ     r6,0x8002dfa ; prvProcessReceivedCommands + 38
        0x08002de4:    bf00        ..      NOP      
        0x08002de6:    2050        P       MOVS     r0,#0x50
        0x08002de8:    f3808811    ....    MSR      BASEPRI,r0
        0x08002dec:    f3bf8f4f    ..O.    DSB      
        0x08002df0:    f3bf8f6f    ..o.    ISB      
        0x08002df4:    bf00        ..      NOP      
        0x08002df6:    bf00        ..      NOP      
        0x08002df8:    e7fe        ..      B        0x8002df8 ; prvProcessReceivedCommands + 36
        0x08002dfa:    e9d62000    ...     LDRD     r2,r0,[r6,#0]
        0x08002dfe:    68b1        .h      LDR      r1,[r6,#8]
        0x08002e00:    4790        .G      BLX      r2
        0x08002e02:    bf00        ..      NOP      
        0x08002e04:    9803        ..      LDR      r0,[sp,#0xc]
        0x08002e06:    2800        .(      CMP      r0,#0
        0x08002e08:    db6a        j.      BLT      0x8002ee0 ; prvProcessReceivedCommands + 268
        0x08002e0a:    9c05        ..      LDR      r4,[sp,#0x14]
        0x08002e0c:    6960        `i      LDR      r0,[r4,#0x14]
        0x08002e0e:    b908        ..      CBNZ     r0,0x8002e14 ; prvProcessReceivedCommands + 64
        0x08002e10:    2001        .       MOVS     r0,#1
        0x08002e12:    e000        ..      B        0x8002e16 ; prvProcessReceivedCommands + 66
        0x08002e14:    2000        .       MOVS     r0,#0
        0x08002e16:    b910        ..      CBNZ     r0,0x8002e1e ; prvProcessReceivedCommands + 74
        0x08002e18:    1d20         .      ADDS     r0,r4,#4
        0x08002e1a:    f000fb47    ..G.    BL       uxListRemove ; 0x80034ac
        0x08002e1e:    a802        ..      ADD      r0,sp,#8
        0x08002e20:    f000f8c0    ....    BL       prvSampleTimeNow ; 0x8002fa4
        0x08002e24:    4605        .F      MOV      r5,r0
        0x08002e26:    9803        ..      LDR      r0,[sp,#0xc]
        0x08002e28:    280a        .(      CMP      r0,#0xa
        0x08002e2a:    d257        W.      BCS      0x8002edc ; prvProcessReceivedCommands + 264
        0x08002e2c:    e8dff000    ....    TBB      [pc,r0]
    $d
        0x08002e30:    31070509    ...1    DCD    822543625
        0x08002e34:    08064f33    3O..    DCD    134631219
        0x08002e38:    3432        24      DCW    13362
    $t
        0x08002e3a:    bf00        ..      NOP      
        0x08002e3c:    bf00        ..      NOP      
        0x08002e3e:    bf00        ..      NOP      
        0x08002e40:    bf00        ..      NOP      
        0x08002e42:    9804        ..      LDR      r0,[sp,#0x10]
        0x08002e44:    69a2        .i      LDR      r2,[r4,#0x18]
        0x08002e46:    1881        ..      ADDS     r1,r0,r2
        0x08002e48:    4603        .F      MOV      r3,r0
        0x08002e4a:    462a        *F      MOV      r2,r5
        0x08002e4c:    4620         F      MOV      r0,r4
        0x08002e4e:    f7ffff47    ..G.    BL       prvInsertTimerInActiveList ; 0x8002ce0
        0x08002e52:    b1e8        ..      CBZ      r0,0x8002e90 ; prvProcessReceivedCommands + 188
        0x08002e54:    4620         F      MOV      r0,r4
        0x08002e56:    6a61        aj      LDR      r1,[r4,#0x24]
        0x08002e58:    4788        .G      BLX      r1
        0x08002e5a:    69e0        .i      LDR      r0,[r4,#0x1c]
        0x08002e5c:    2801        .(      CMP      r0,#1
        0x08002e5e:    d117        ..      BNE      0x8002e90 ; prvProcessReceivedCommands + 188
        0x08002e60:    2000        .       MOVS     r0,#0
        0x08002e62:    9000        ..      STR      r0,[sp,#0]
        0x08002e64:    9804        ..      LDR      r0,[sp,#0x10]
        0x08002e66:    69a1        .i      LDR      r1,[r4,#0x18]
        0x08002e68:    1842        B.      ADDS     r2,r0,r1
        0x08002e6a:    2300        .#      MOVS     r3,#0
        0x08002e6c:    4619        .F      MOV      r1,r3
        0x08002e6e:    4620         F      MOV      r0,r4
        0x08002e70:    f001fbe8    ....    BL       xTimerGenericCommand ; 0x8004644
        0x08002e74:    4607        .F      MOV      r7,r0
        0x08002e76:    b957        W.      CBNZ     r7,0x8002e8e ; prvProcessReceivedCommands + 186
        0x08002e78:    bf00        ..      NOP      
        0x08002e7a:    2050        P       MOVS     r0,#0x50
        0x08002e7c:    f3808811    ....    MSR      BASEPRI,r0
        0x08002e80:    f3bf8f4f    ..O.    DSB      
        0x08002e84:    f3bf8f6f    ..o.    ISB      
        0x08002e88:    bf00        ..      NOP      
        0x08002e8a:    bf00        ..      NOP      
        0x08002e8c:    e7fe        ..      B        0x8002e8c ; prvProcessReceivedCommands + 184
        0x08002e8e:    bf00        ..      NOP      
        0x08002e90:    e025        %.      B        0x8002ede ; prvProcessReceivedCommands + 266
        0x08002e92:    bf00        ..      NOP      
        0x08002e94:    e023        #.      B        0x8002ede ; prvProcessReceivedCommands + 266
        0x08002e96:    bf00        ..      NOP      
        0x08002e98:    9804        ..      LDR      r0,[sp,#0x10]
        0x08002e9a:    61a0        .a      STR      r0,[r4,#0x18]
        0x08002e9c:    69a0        .i      LDR      r0,[r4,#0x18]
        0x08002e9e:    b108        ..      CBZ      r0,0x8002ea4 ; prvProcessReceivedCommands + 208
        0x08002ea0:    2001        .       MOVS     r0,#1
        0x08002ea2:    e000        ..      B        0x8002ea6 ; prvProcessReceivedCommands + 210
        0x08002ea4:    2000        .       MOVS     r0,#0
        0x08002ea6:    b950        P.      CBNZ     r0,0x8002ebe ; prvProcessReceivedCommands + 234
        0x08002ea8:    bf00        ..      NOP      
        0x08002eaa:    2050        P       MOVS     r0,#0x50
        0x08002eac:    f3808811    ....    MSR      BASEPRI,r0
        0x08002eb0:    f3bf8f4f    ..O.    DSB      
        0x08002eb4:    f3bf8f6f    ..o.    ISB      
        0x08002eb8:    bf00        ..      NOP      
        0x08002eba:    bf00        ..      NOP      
        0x08002ebc:    e7fe        ..      B        0x8002ebc ; prvProcessReceivedCommands + 232
        0x08002ebe:    69a0        .i      LDR      r0,[r4,#0x18]
        0x08002ec0:    1941        A.      ADDS     r1,r0,r5
        0x08002ec2:    462b        +F      MOV      r3,r5
        0x08002ec4:    462a        *F      MOV      r2,r5
        0x08002ec6:    4620         F      MOV      r0,r4
        0x08002ec8:    f7ffff0a    ....    BL       prvInsertTimerInActiveList ; 0x8002ce0
        0x08002ecc:    e007        ..      B        0x8002ede ; prvProcessReceivedCommands + 266
        0x08002ece:    f894002c    ..,.    LDRB     r0,[r4,#0x2c]
        0x08002ed2:    b910        ..      CBNZ     r0,0x8002eda ; prvProcessReceivedCommands + 262
        0x08002ed4:    4620         F      MOV      r0,r4
        0x08002ed6:    f000fb93    ....    BL       vPortFree ; 0x8003600
        0x08002eda:    e000        ..      B        0x8002ede ; prvProcessReceivedCommands + 266
        0x08002edc:    bf00        ..      NOP      
        0x08002ede:    bf00        ..      NOP      
        0x08002ee0:    2200        ."      MOVS     r2,#0
        0x08002ee2:    a903        ..      ADD      r1,sp,#0xc
        0x08002ee4:    4804        .H      LDR      r0,[pc,#16] ; [0x8002ef8] = 0x20000060
        0x08002ee6:    6800        .h      LDR      r0,[r0,#0]
        0x08002ee8:    f001f810    ....    BL       xQueueReceive ; 0x8003f0c
        0x08002eec:    2800        .(      CMP      r0,#0
        0x08002eee:    f47faf74    ..t.    BNE      0x8002dda ; prvProcessReceivedCommands + 6
        0x08002ef2:    b007        ..      ADD      sp,sp,#0x1c
        0x08002ef4:    bdf0        ..      POP      {r4-r7,pc}
    $d
        0x08002ef6:    0000        ..      DCW    0
        0x08002ef8:    20000060    `..     DCD    536871008
    $t
    i.prvProcessTimerOrBlockTask
    prvProcessTimerOrBlockTask
        0x08002efc:    b5f8        ..      PUSH     {r3-r7,lr}
        0x08002efe:    4605        .F      MOV      r5,r0
        0x08002f00:    460c        .F      MOV      r4,r1
        0x08002f02:    f000fd2b    ..+.    BL       vTaskSuspendAll ; 0x800395c
        0x08002f06:    4668        hF      MOV      r0,sp
        0x08002f08:    f000f84c    ..L.    BL       prvSampleTimeNow ; 0x8002fa4
        0x08002f0c:    4606        .F      MOV      r6,r0
        0x08002f0e:    9800        ..      LDR      r0,[sp,#0]
        0x08002f10:    bb20         .      CBNZ     r0,0x8002f5c ; prvProcessTimerOrBlockTask + 96
        0x08002f12:    b944        D.      CBNZ     r4,0x8002f26 ; prvProcessTimerOrBlockTask + 42
        0x08002f14:    42b5        .B      CMP      r5,r6
        0x08002f16:    d806        ..      BHI      0x8002f26 ; prvProcessTimerOrBlockTask + 42
        0x08002f18:    f001fad6    ....    BL       xTaskResumeAll ; 0x80044c8
        0x08002f1c:    4631        1F      MOV      r1,r6
        0x08002f1e:    4628        (F      MOV      r0,r5
        0x08002f20:    f7ffff26    ..&.    BL       prvProcessExpiredTimer ; 0x8002d70
        0x08002f24:    e01c        ..      B        0x8002f60 ; prvProcessTimerOrBlockTask + 100
        0x08002f26:    b13c        <.      CBZ      r4,0x8002f38 ; prvProcessTimerOrBlockTask + 60
        0x08002f28:    480e        .H      LDR      r0,[pc,#56] ; [0x8002f64] = 0x2000005c
        0x08002f2a:    6800        .h      LDR      r0,[r0,#0]
        0x08002f2c:    6800        .h      LDR      r0,[r0,#0]
        0x08002f2e:    b908        ..      CBNZ     r0,0x8002f34 ; prvProcessTimerOrBlockTask + 56
        0x08002f30:    2001        .       MOVS     r0,#1
        0x08002f32:    e000        ..      B        0x8002f36 ; prvProcessTimerOrBlockTask + 58
        0x08002f34:    2000        .       MOVS     r0,#0
        0x08002f36:    4604        .F      MOV      r4,r0
        0x08002f38:    1ba9        ..      SUBS     r1,r5,r6
        0x08002f3a:    4622        "F      MOV      r2,r4
        0x08002f3c:    480a        .H      LDR      r0,[pc,#40] ; [0x8002f68] = 0x20000060
        0x08002f3e:    6800        .h      LDR      r0,[r0,#0]
        0x08002f40:    f000fc0e    ....    BL       vQueueWaitForMessageRestricted ; 0x8003760
        0x08002f44:    f001fac0    ....    BL       xTaskResumeAll ; 0x80044c8
        0x08002f48:    b950        P.      CBNZ     r0,0x8002f60 ; prvProcessTimerOrBlockTask + 100
        0x08002f4a:    f04f5080    O..P    MOV      r0,#0x10000000
        0x08002f4e:    4907        .I      LDR      r1,[pc,#28] ; [0x8002f6c] = 0xe000ed04
        0x08002f50:    6008        .`      STR      r0,[r1,#0]
        0x08002f52:    f3bf8f4f    ..O.    DSB      
        0x08002f56:    f3bf8f6f    ..o.    ISB      
        0x08002f5a:    e001        ..      B        0x8002f60 ; prvProcessTimerOrBlockTask + 100
        0x08002f5c:    f001fab4    ....    BL       xTaskResumeAll ; 0x80044c8
        0x08002f60:    bdf8        ..      POP      {r3-r7,pc}
    $d
        0x08002f62:    0000        ..      DCW    0
        0x08002f64:    2000005c    \..     DCD    536871004
        0x08002f68:    20000060    `..     DCD    536871008
        0x08002f6c:    e000ed04    ....    DCD    3758157060
    $t
    i.prvResetNextTaskUnblockTime
    prvResetNextTaskUnblockTime
        0x08002f70:    490a        .I      LDR      r1,[pc,#40] ; [0x8002f9c] = 0x20000020
        0x08002f72:    6809        .h      LDR      r1,[r1,#0]
        0x08002f74:    6809        .h      LDR      r1,[r1,#0]
        0x08002f76:    b909        ..      CBNZ     r1,0x8002f7c ; prvResetNextTaskUnblockTime + 12
        0x08002f78:    2101        .!      MOVS     r1,#1
        0x08002f7a:    e000        ..      B        0x8002f7e ; prvResetNextTaskUnblockTime + 14
        0x08002f7c:    2100        .!      MOVS     r1,#0
        0x08002f7e:    b121        !.      CBZ      r1,0x8002f8a ; prvResetNextTaskUnblockTime + 26
        0x08002f80:    f04f31ff    O..1    MOV      r1,#0xffffffff
        0x08002f84:    4a06        .J      LDR      r2,[pc,#24] ; [0x8002fa0] = 0x2000004c
        0x08002f86:    6011        .`      STR      r1,[r2,#0]
        0x08002f88:    e006        ..      B        0x8002f98 ; prvResetNextTaskUnblockTime + 40
        0x08002f8a:    4904        .I      LDR      r1,[pc,#16] ; [0x8002f9c] = 0x20000020
        0x08002f8c:    6809        .h      LDR      r1,[r1,#0]
        0x08002f8e:    68c9        .h      LDR      r1,[r1,#0xc]
        0x08002f90:    68c8        .h      LDR      r0,[r1,#0xc]
        0x08002f92:    4a03        .J      LDR      r2,[pc,#12] ; [0x8002fa0] = 0x2000004c
        0x08002f94:    6841        Ah      LDR      r1,[r0,#4]
        0x08002f96:    6011        .`      STR      r1,[r2,#0]
        0x08002f98:    4770        pG      BX       lr
    $d
        0x08002f9a:    0000        ..      DCW    0
        0x08002f9c:    20000020     ..     DCD    536870944
        0x08002fa0:    2000004c    L..     DCD    536870988
    $t
    i.prvSampleTimeNow
    prvSampleTimeNow
        0x08002fa4:    b570        p.      PUSH     {r4-r6,lr}
        0x08002fa6:    4604        .F      MOV      r4,r0
        0x08002fa8:    f001f948    ..H.    BL       xTaskGetTickCount ; 0x800423c
        0x08002fac:    4605        .F      MOV      r5,r0
        0x08002fae:    4807        .H      LDR      r0,[pc,#28] ; [0x8002fcc] = 0x20000068
        0x08002fb0:    6800        .h      LDR      r0,[r0,#0]
        0x08002fb2:    4285        .B      CMP      r5,r0
        0x08002fb4:    d204        ..      BCS      0x8002fc0 ; prvSampleTimeNow + 28
        0x08002fb6:    f000f80b    ....    BL       prvSwitchTimerLists ; 0x8002fd0
        0x08002fba:    2001        .       MOVS     r0,#1
        0x08002fbc:    6020         `      STR      r0,[r4,#0]
        0x08002fbe:    e001        ..      B        0x8002fc4 ; prvSampleTimeNow + 32
        0x08002fc0:    2000        .       MOVS     r0,#0
        0x08002fc2:    6020         `      STR      r0,[r4,#0]
        0x08002fc4:    4801        .H      LDR      r0,[pc,#4] ; [0x8002fcc] = 0x20000068
        0x08002fc6:    6005        .`      STR      r5,[r0,#0]
        0x08002fc8:    4628        (F      MOV      r0,r5
        0x08002fca:    bd70        p.      POP      {r4-r6,pc}
    $d
        0x08002fcc:    20000068    h..     DCD    536871016
    $t
    i.prvSwitchTimerLists
    prvSwitchTimerLists
        0x08002fd0:    e92d43f8    -..C    PUSH     {r3-r9,lr}
        0x08002fd4:    e032        2.      B        0x800303c ; prvSwitchTimerLists + 108
        0x08002fd6:    4824        $H      LDR      r0,[pc,#144] ; [0x8003068] = 0x20000058
        0x08002fd8:    6800        .h      LDR      r0,[r0,#0]
        0x08002fda:    68c0        .h      LDR      r0,[r0,#0xc]
        0x08002fdc:    6805        .h      LDR      r5,[r0,#0]
        0x08002fde:    4822        "H      LDR      r0,[pc,#136] ; [0x8003068] = 0x20000058
        0x08002fe0:    6800        .h      LDR      r0,[r0,#0]
        0x08002fe2:    68c0        .h      LDR      r0,[r0,#0xc]
        0x08002fe4:    68c4        .h      LDR      r4,[r0,#0xc]
        0x08002fe6:    1d20         .      ADDS     r0,r4,#4
        0x08002fe8:    f000fa60    ..`.    BL       uxListRemove ; 0x80034ac
        0x08002fec:    4620         F      MOV      r0,r4
        0x08002fee:    6a61        aj      LDR      r1,[r4,#0x24]
        0x08002ff0:    4788        .G      BLX      r1
        0x08002ff2:    69e0        .i      LDR      r0,[r4,#0x1c]
        0x08002ff4:    2801        .(      CMP      r0,#1
        0x08002ff6:    d121        !.      BNE      0x800303c ; prvSwitchTimerLists + 108
        0x08002ff8:    69a0        .i      LDR      r0,[r4,#0x18]
        0x08002ffa:    1946        F.      ADDS     r6,r0,r5
        0x08002ffc:    42ae        .B      CMP      r6,r5
        0x08002ffe:    d907        ..      BLS      0x8003010 ; prvSwitchTimerLists + 64
        0x08003000:    6066        f`      STR      r6,[r4,#4]
        0x08003002:    6124        $a      STR      r4,[r4,#0x10]
        0x08003004:    1d21        !.      ADDS     r1,r4,#4
        0x08003006:    4818        .H      LDR      r0,[pc,#96] ; [0x8003068] = 0x20000058
        0x08003008:    6800        .h      LDR      r0,[r0,#0]
        0x0800300a:    f000fa8b    ....    BL       vListInsert ; 0x8003524
        0x0800300e:    e015        ..      B        0x800303c ; prvSwitchTimerLists + 108
        0x08003010:    2000        .       MOVS     r0,#0
        0x08003012:    4603        .F      MOV      r3,r0
        0x08003014:    462a        *F      MOV      r2,r5
        0x08003016:    4601        .F      MOV      r1,r0
        0x08003018:    9000        ..      STR      r0,[sp,#0]
        0x0800301a:    4620         F      MOV      r0,r4
        0x0800301c:    f001fb12    ....    BL       xTimerGenericCommand ; 0x8004644
        0x08003020:    4607        .F      MOV      r7,r0
        0x08003022:    b957        W.      CBNZ     r7,0x800303a ; prvSwitchTimerLists + 106
        0x08003024:    bf00        ..      NOP      
        0x08003026:    2050        P       MOVS     r0,#0x50
        0x08003028:    f3808811    ....    MSR      BASEPRI,r0
        0x0800302c:    f3bf8f4f    ..O.    DSB      
        0x08003030:    f3bf8f6f    ..o.    ISB      
        0x08003034:    bf00        ..      NOP      
        0x08003036:    bf00        ..      NOP      
        0x08003038:    e7fe        ..      B        0x8003038 ; prvSwitchTimerLists + 104
        0x0800303a:    bf00        ..      NOP      
        0x0800303c:    480a        .H      LDR      r0,[pc,#40] ; [0x8003068] = 0x20000058
        0x0800303e:    6800        .h      LDR      r0,[r0,#0]
        0x08003040:    6800        .h      LDR      r0,[r0,#0]
        0x08003042:    b908        ..      CBNZ     r0,0x8003048 ; prvSwitchTimerLists + 120
        0x08003044:    2001        .       MOVS     r0,#1
        0x08003046:    e000        ..      B        0x800304a ; prvSwitchTimerLists + 122
        0x08003048:    2000        .       MOVS     r0,#0
        0x0800304a:    2800        .(      CMP      r0,#0
        0x0800304c:    d0c3        ..      BEQ      0x8002fd6 ; prvSwitchTimerLists + 6
        0x0800304e:    4806        .H      LDR      r0,[pc,#24] ; [0x8003068] = 0x20000058
        0x08003050:    f8d08000    ....    LDR      r8,[r0,#0]
        0x08003054:    4805        .H      LDR      r0,[pc,#20] ; [0x800306c] = 0x2000005c
        0x08003056:    6800        .h      LDR      r0,[r0,#0]
        0x08003058:    4903        .I      LDR      r1,[pc,#12] ; [0x8003068] = 0x20000058
        0x0800305a:    6008        .`      STR      r0,[r1,#0]
        0x0800305c:    4803        .H      LDR      r0,[pc,#12] ; [0x800306c] = 0x2000005c
        0x0800305e:    f8c08000    ....    STR      r8,[r0,#0]
        0x08003062:    e8bd83f8    ....    POP      {r3-r9,pc}
    $d
        0x08003066:    0000        ..      DCW    0
        0x08003068:    20000058    X..     DCD    536871000
        0x0800306c:    2000005c    \..     DCD    536871004
    $t
    i.prvTaskExitError
    prvTaskExitError
        0x08003070:    480e        .H      LDR      r0,[pc,#56] ; [0x80030ac] = 0x20000088
        0x08003072:    6800        .h      LDR      r0,[r0,#0]
        0x08003074:    1c40        @.      ADDS     r0,r0,#1
        0x08003076:    b908        ..      CBNZ     r0,0x800307c ; prvTaskExitError + 12
        0x08003078:    2001        .       MOVS     r0,#1
        0x0800307a:    e000        ..      B        0x800307e ; prvTaskExitError + 14
        0x0800307c:    2000        .       MOVS     r0,#0
        0x0800307e:    b950        P.      CBNZ     r0,0x8003096 ; prvTaskExitError + 38
        0x08003080:    bf00        ..      NOP      
        0x08003082:    2050        P       MOVS     r0,#0x50
        0x08003084:    f3808811    ....    MSR      BASEPRI,r0
        0x08003088:    f3bf8f4f    ..O.    DSB      
        0x0800308c:    f3bf8f6f    ..o.    ISB      
        0x08003090:    bf00        ..      NOP      
        0x08003092:    bf00        ..      NOP      
        0x08003094:    e7fe        ..      B        0x8003094 ; prvTaskExitError + 36
        0x08003096:    bf00        ..      NOP      
        0x08003098:    2050        P       MOVS     r0,#0x50
        0x0800309a:    f3808811    ....    MSR      BASEPRI,r0
        0x0800309e:    f3bf8f4f    ..O.    DSB      
        0x080030a2:    f3bf8f6f    ..o.    ISB      
        0x080030a6:    bf00        ..      NOP      
        0x080030a8:    bf00        ..      NOP      
        0x080030aa:    e7fe        ..      B        0x80030aa ; prvTaskExitError + 58
    $d
        0x080030ac:    20000088    ...     DCD    536871048
    $t
    i.prvTimerTask
    prvTimerTask
        0x080030b0:    b508        ..      PUSH     {r3,lr}
        0x080030b2:    bf00        ..      NOP      
        0x080030b4:    4668        hF      MOV      r0,sp
        0x080030b6:    f7fffcd5    ....    BL       prvGetNextExpireTime ; 0x8002a64
        0x080030ba:    4604        .F      MOV      r4,r0
        0x080030bc:    4620         F      MOV      r0,r4
        0x080030be:    9900        ..      LDR      r1,[sp,#0]
        0x080030c0:    f7ffff1c    ....    BL       prvProcessTimerOrBlockTask ; 0x8002efc
        0x080030c4:    f7fffe86    ....    BL       prvProcessReceivedCommands ; 0x8002dd4
        0x080030c8:    e7f4        ..      B        0x80030b4 ; prvTimerTask + 4
    i.prvUnlockQueue
    prvUnlockQueue
        0x080030ca:    b570        p.      PUSH     {r4-r6,lr}
        0x080030cc:    4604        .F      MOV      r4,r0
        0x080030ce:    f000fa4f    ..O.    BL       vPortEnterCritical ; 0x8003570
        0x080030d2:    f9945045    ..EP    LDRSB    r5,[r4,#0x45]
        0x080030d6:    e010        ..      B        0x80030fa ; prvUnlockQueue + 48
        0x080030d8:    6a60        `j      LDR      r0,[r4,#0x24]
        0x080030da:    b908        ..      CBNZ     r0,0x80030e0 ; prvUnlockQueue + 22
        0x080030dc:    2001        .       MOVS     r0,#1
        0x080030de:    e000        ..      B        0x80030e2 ; prvUnlockQueue + 24
        0x080030e0:    2000        .       MOVS     r0,#0
        0x080030e2:    b938        8.      CBNZ     r0,0x80030f4 ; prvUnlockQueue + 42
        0x080030e4:    f1040024    ..$.    ADD      r0,r4,#0x24
        0x080030e8:    f001f9a2    ....    BL       xTaskRemoveFromEventList ; 0x8004430
        0x080030ec:    b118        ..      CBZ      r0,0x80030f6 ; prvUnlockQueue + 44
        0x080030ee:    f000fb97    ....    BL       vTaskMissedYield ; 0x8003820
        0x080030f2:    e000        ..      B        0x80030f6 ; prvUnlockQueue + 44
        0x080030f4:    e003        ..      B        0x80030fe ; prvUnlockQueue + 52
        0x080030f6:    1e68        h.      SUBS     r0,r5,#1
        0x080030f8:    b245        E.      SXTB     r5,r0
        0x080030fa:    2d00        .-      CMP      r5,#0
        0x080030fc:    dcec        ..      BGT      0x80030d8 ; prvUnlockQueue + 14
        0x080030fe:    bf00        ..      NOP      
        0x08003100:    20ff        .       MOVS     r0,#0xff
        0x08003102:    f8840045    ..E.    STRB     r0,[r4,#0x45]
        0x08003106:    f000fa5d    ..].    BL       vPortExitCritical ; 0x80035c4
        0x0800310a:    f000fa31    ..1.    BL       vPortEnterCritical ; 0x8003570
        0x0800310e:    f9945044    ..DP    LDRSB    r5,[r4,#0x44]
        0x08003112:    e010        ..      B        0x8003136 ; prvUnlockQueue + 108
        0x08003114:    6920         i      LDR      r0,[r4,#0x10]
        0x08003116:    b908        ..      CBNZ     r0,0x800311c ; prvUnlockQueue + 82
        0x08003118:    2001        .       MOVS     r0,#1
        0x0800311a:    e000        ..      B        0x800311e ; prvUnlockQueue + 84
        0x0800311c:    2000        .       MOVS     r0,#0
        0x0800311e:    b948        H.      CBNZ     r0,0x8003134 ; prvUnlockQueue + 106
        0x08003120:    f1040010    ....    ADD      r0,r4,#0x10
        0x08003124:    f001f984    ....    BL       xTaskRemoveFromEventList ; 0x8004430
        0x08003128:    b108        ..      CBZ      r0,0x800312e ; prvUnlockQueue + 100
        0x0800312a:    f000fb79    ..y.    BL       vTaskMissedYield ; 0x8003820
        0x0800312e:    1e68        h.      SUBS     r0,r5,#1
        0x08003130:    b245        E.      SXTB     r5,r0
        0x08003132:    e000        ..      B        0x8003136 ; prvUnlockQueue + 108
        0x08003134:    e001        ..      B        0x800313a ; prvUnlockQueue + 112
        0x08003136:    2d00        .-      CMP      r5,#0
        0x08003138:    dcec        ..      BGT      0x8003114 ; prvUnlockQueue + 74
        0x0800313a:    bf00        ..      NOP      
        0x0800313c:    20ff        .       MOVS     r0,#0xff
        0x0800313e:    f8840044    ..D.    STRB     r0,[r4,#0x44]
        0x08003142:    f000fa3f    ..?.    BL       vPortExitCritical ; 0x80035c4
        0x08003146:    bd70        p.      POP      {r4-r6,pc}
    i.pvPortMalloc
    pvPortMalloc
        0x08003148:    e92d41f0    -..A    PUSH     {r4-r8,lr}
        0x0800314c:    4604        .F      MOV      r4,r0
        0x0800314e:    f04f0800    O...    MOV      r8,#0
        0x08003152:    f000fc03    ....    BL       vTaskSuspendAll ; 0x800395c
        0x08003156:    4846        FH      LDR      r0,[pc,#280] ; [0x8003270] = 0x20000078
        0x08003158:    6800        .h      LDR      r0,[r0,#0]
        0x0800315a:    b908        ..      CBNZ     r0,0x8003160 ; pvPortMalloc + 24
        0x0800315c:    f7fffc96    ....    BL       prvHeapInit ; 0x8002a8c
        0x08003160:    4844        DH      LDR      r0,[pc,#272] ; [0x8003274] = 0x20000084
        0x08003162:    6800        .h      LDR      r0,[r0,#0]
        0x08003164:    4020         @      ANDS     r0,r0,r4
        0x08003166:    2800        .(      CMP      r0,#0
        0x08003168:    d16b        k.      BNE      0x8003242 ; pvPortMalloc + 250
        0x0800316a:    b1d4        ..      CBZ      r4,0x80031a2 ; pvPortMalloc + 90
        0x0800316c:    3408        .4      ADDS     r4,r4,#8
        0x0800316e:    f0040007    ....    AND      r0,r4,#7
        0x08003172:    b1b0        ..      CBZ      r0,0x80031a2 ; pvPortMalloc + 90
        0x08003174:    f0040007    ....    AND      r0,r4,#7
        0x08003178:    f1c00008    ....    RSB      r0,r0,#8
        0x0800317c:    4404        .D      ADD      r4,r4,r0
        0x0800317e:    f0040007    ....    AND      r0,r4,#7
        0x08003182:    b908        ..      CBNZ     r0,0x8003188 ; pvPortMalloc + 64
        0x08003184:    2001        .       MOVS     r0,#1
        0x08003186:    e000        ..      B        0x800318a ; pvPortMalloc + 66
        0x08003188:    2000        .       MOVS     r0,#0
        0x0800318a:    b950        P.      CBNZ     r0,0x80031a2 ; pvPortMalloc + 90
        0x0800318c:    bf00        ..      NOP      
        0x0800318e:    2050        P       MOVS     r0,#0x50
        0x08003190:    f3808811    ....    MSR      BASEPRI,r0
        0x08003194:    f3bf8f4f    ..O.    DSB      
        0x08003198:    f3bf8f6f    ..o.    ISB      
        0x0800319c:    bf00        ..      NOP      
        0x0800319e:    bf00        ..      NOP      
        0x080031a0:    e7fe        ..      B        0x80031a0 ; pvPortMalloc + 88
        0x080031a2:    2c00        .,      CMP      r4,#0
        0x080031a4:    d04d        M.      BEQ      0x8003242 ; pvPortMalloc + 250
        0x080031a6:    4834        4H      LDR      r0,[pc,#208] ; [0x8003278] = 0x2000007c
        0x080031a8:    6800        .h      LDR      r0,[r0,#0]
        0x080031aa:    4284        .B      CMP      r4,r0
        0x080031ac:    d849        I.      BHI      0x8003242 ; pvPortMalloc + 250
        0x080031ae:    4e33        3N      LDR      r6,[pc,#204] ; [0x800327c] = 0x20000070
        0x080031b0:    4630        0F      MOV      r0,r6
        0x080031b2:    6805        .h      LDR      r5,[r0,#0]
        0x080031b4:    e001        ..      B        0x80031ba ; pvPortMalloc + 114
        0x080031b6:    462e        .F      MOV      r6,r5
        0x080031b8:    682d        -h      LDR      r5,[r5,#0]
        0x080031ba:    6868        hh      LDR      r0,[r5,#4]
        0x080031bc:    42a0        .B      CMP      r0,r4
        0x080031be:    d202        ..      BCS      0x80031c6 ; pvPortMalloc + 126
        0x080031c0:    6828        (h      LDR      r0,[r5,#0]
        0x080031c2:    2800        .(      CMP      r0,#0
        0x080031c4:    d1f7        ..      BNE      0x80031b6 ; pvPortMalloc + 110
        0x080031c6:    482a        *H      LDR      r0,[pc,#168] ; [0x8003270] = 0x20000078
        0x080031c8:    6800        .h      LDR      r0,[r0,#0]
        0x080031ca:    4285        .B      CMP      r5,r0
        0x080031cc:    d039        9.      BEQ      0x8003242 ; pvPortMalloc + 250
        0x080031ce:    6830        0h      LDR      r0,[r6,#0]
        0x080031d0:    f1000808    ....    ADD      r8,r0,#8
        0x080031d4:    6828        (h      LDR      r0,[r5,#0]
        0x080031d6:    6030        0`      STR      r0,[r6,#0]
        0x080031d8:    6868        hh      LDR      r0,[r5,#4]
        0x080031da:    1b00        ..      SUBS     r0,r0,r4
        0x080031dc:    2810        .(      CMP      r0,#0x10
        0x080031de:    d919        ..      BLS      0x8003214 ; pvPortMalloc + 204
        0x080031e0:    192f        /.      ADDS     r7,r5,r4
        0x080031e2:    f0070007    ....    AND      r0,r7,#7
        0x080031e6:    b908        ..      CBNZ     r0,0x80031ec ; pvPortMalloc + 164
        0x080031e8:    2001        .       MOVS     r0,#1
        0x080031ea:    e000        ..      B        0x80031ee ; pvPortMalloc + 166
        0x080031ec:    2000        .       MOVS     r0,#0
        0x080031ee:    b950        P.      CBNZ     r0,0x8003206 ; pvPortMalloc + 190
        0x080031f0:    bf00        ..      NOP      
        0x080031f2:    2050        P       MOVS     r0,#0x50
        0x080031f4:    f3808811    ....    MSR      BASEPRI,r0
        0x080031f8:    f3bf8f4f    ..O.    DSB      
        0x080031fc:    f3bf8f6f    ..o.    ISB      
        0x08003200:    bf00        ..      NOP      
        0x08003202:    bf00        ..      NOP      
        0x08003204:    e7fe        ..      B        0x8003204 ; pvPortMalloc + 188
        0x08003206:    6868        hh      LDR      r0,[r5,#4]
        0x08003208:    1b00        ..      SUBS     r0,r0,r4
        0x0800320a:    6078        x`      STR      r0,[r7,#4]
        0x0800320c:    606c        l`      STR      r4,[r5,#4]
        0x0800320e:    4638        8F      MOV      r0,r7
        0x08003210:    f7fffd32    ..2.    BL       prvInsertBlockIntoFreeList ; 0x8002c78
        0x08003214:    4918        .I      LDR      r1,[pc,#96] ; [0x8003278] = 0x2000007c
        0x08003216:    6868        hh      LDR      r0,[r5,#4]
        0x08003218:    6809        .h      LDR      r1,[r1,#0]
        0x0800321a:    1a08        ..      SUBS     r0,r1,r0
        0x0800321c:    4916        .I      LDR      r1,[pc,#88] ; [0x8003278] = 0x2000007c
        0x0800321e:    6008        .`      STR      r0,[r1,#0]
        0x08003220:    4608        .F      MOV      r0,r1
        0x08003222:    6800        .h      LDR      r0,[r0,#0]
        0x08003224:    4916        .I      LDR      r1,[pc,#88] ; [0x8003280] = 0x20000080
        0x08003226:    6809        .h      LDR      r1,[r1,#0]
        0x08003228:    4288        .B      CMP      r0,r1
        0x0800322a:    d203        ..      BCS      0x8003234 ; pvPortMalloc + 236
        0x0800322c:    4812        .H      LDR      r0,[pc,#72] ; [0x8003278] = 0x2000007c
        0x0800322e:    6800        .h      LDR      r0,[r0,#0]
        0x08003230:    4913        .I      LDR      r1,[pc,#76] ; [0x8003280] = 0x20000080
        0x08003232:    6008        .`      STR      r0,[r1,#0]
        0x08003234:    490f        .I      LDR      r1,[pc,#60] ; [0x8003274] = 0x20000084
        0x08003236:    6868        hh      LDR      r0,[r5,#4]
        0x08003238:    6809        .h      LDR      r1,[r1,#0]
        0x0800323a:    4308        .C      ORRS     r0,r0,r1
        0x0800323c:    6068        h`      STR      r0,[r5,#4]
        0x0800323e:    2000        .       MOVS     r0,#0
        0x08003240:    6028        (`      STR      r0,[r5,#0]
        0x08003242:    f001f941    ..A.    BL       xTaskResumeAll ; 0x80044c8
        0x08003246:    f0080007    ....    AND      r0,r8,#7
        0x0800324a:    b908        ..      CBNZ     r0,0x8003250 ; pvPortMalloc + 264
        0x0800324c:    2001        .       MOVS     r0,#1
        0x0800324e:    e000        ..      B        0x8003252 ; pvPortMalloc + 266
        0x08003250:    2000        .       MOVS     r0,#0
        0x08003252:    b950        P.      CBNZ     r0,0x800326a ; pvPortMalloc + 290
        0x08003254:    bf00        ..      NOP      
        0x08003256:    2050        P       MOVS     r0,#0x50
        0x08003258:    f3808811    ....    MSR      BASEPRI,r0
        0x0800325c:    f3bf8f4f    ..O.    DSB      
        0x08003260:    f3bf8f6f    ..o.    ISB      
        0x08003264:    bf00        ..      NOP      
        0x08003266:    bf00        ..      NOP      
        0x08003268:    e7fe        ..      B        0x8003268 ; pvPortMalloc + 288
        0x0800326a:    4640        @F      MOV      r0,r8
        0x0800326c:    e8bd81f0    ....    POP      {r4-r8,pc}
    $d
        0x08003270:    20000078    x..     DCD    536871032
        0x08003274:    20000084    ...     DCD    536871044
        0x08003278:    2000007c    |..     DCD    536871036
        0x0800327c:    20000070    p..     DCD    536871024
        0x08003280:    20000080    ...     DCD    536871040
    $t
    i.pxPortInitialiseStack
    pxPortInitialiseStack
        0x08003284:    1f00        ..      SUBS     r0,r0,#4
        0x08003286:    f04f7380    O..s    MOV      r3,#0x1000000
        0x0800328a:    6003        .`      STR      r3,[r0,#0]
        0x0800328c:    1f00        ..      SUBS     r0,r0,#4
        0x0800328e:    f0210301    !...    BIC      r3,r1,#1
        0x08003292:    6003        .`      STR      r3,[r0,#0]
        0x08003294:    1f00        ..      SUBS     r0,r0,#4
        0x08003296:    4b03        .K      LDR      r3,[pc,#12] ; [0x80032a4] = 0x8003071
        0x08003298:    6003        .`      STR      r3,[r0,#0]
        0x0800329a:    3814        .8      SUBS     r0,r0,#0x14
        0x0800329c:    6002        .`      STR      r2,[r0,#0]
        0x0800329e:    3820         8      SUBS     r0,r0,#0x20
        0x080032a0:    4770        pG      BX       lr
    $d
        0x080032a2:    0000        ..      DCW    0
        0x080032a4:    08003071    q0..    DCD    134230129
    $t
    i.ring_buffer_init
    ring_buffer_init
        0x080032a8:    2100        .!      MOVS     r1,#0
        0x080032aa:    f8c01400    ....    STR      r1,[r0,#0x400]
        0x080032ae:    f8c01404    ....    STR      r1,[r0,#0x404]
        0x080032b2:    4770        pG      BX       lr
    i.ring_buffer_write
    ring_buffer_write
        0x080032b4:    f8d13400    ...4    LDR      r3,[r1,#0x400]
        0x080032b8:    1c5b        [.      ADDS     r3,r3,#1
        0x080032ba:    f3c30209    ....    UBFX     r2,r3,#0,#10
        0x080032be:    f8d13404    ...4    LDR      r3,[r1,#0x404]
        0x080032c2:    4293        .B      CMP      r3,r2
        0x080032c4:    d004        ..      BEQ      0x80032d0 ; ring_buffer_write + 28
        0x080032c6:    f8d13400    ...4    LDR      r3,[r1,#0x400]
        0x080032ca:    54c8        .T      STRB     r0,[r1,r3]
        0x080032cc:    f8c12400    ...$    STR      r2,[r1,#0x400]
        0x080032d0:    4770        pG      BX       lr
        0x080032d2:    0000        ..      MOVS     r0,r0
    i.rt_hw_hard_fault_exception
    rt_hw_hard_fault_exception
        0x080032d4:    4604        .F      MOV      r4,r0
        0x080032d6:    f1040644    ..D.    ADD      r6,r4,#0x44
        0x080032da:    a02f        /.      ADR      r0,{pc}+0xbe ; 0x8003398
        0x080032dc:    6c21        !l      LDR      r1,[r4,#0x40]
        0x080032de:    f7fefedb    ....    BL       __0printf$8 ; 0x8002098
        0x080032e2:    a031        1.      ADR      r0,{pc}+0xc6 ; 0x80033a8
        0x080032e4:    6a61        aj      LDR      r1,[r4,#0x24]
        0x080032e6:    f7fefed7    ....    BL       __0printf$8 ; 0x8002098
        0x080032ea:    a033        3.      ADR      r0,{pc}+0xce ; 0x80033b8
        0x080032ec:    6aa1        .j      LDR      r1,[r4,#0x28]
        0x080032ee:    f7fefed3    ....    BL       __0printf$8 ; 0x8002098
        0x080032f2:    a035        5.      ADR      r0,{pc}+0xd6 ; 0x80033c8
        0x080032f4:    6ae1        .j      LDR      r1,[r4,#0x2c]
        0x080032f6:    f7fefecf    ....    BL       __0printf$8 ; 0x8002098
        0x080032fa:    a037        7.      ADR      r0,{pc}+0xde ; 0x80033d8
        0x080032fc:    6b21        !k      LDR      r1,[r4,#0x30]
        0x080032fe:    f7fefecb    ....    BL       __0printf$8 ; 0x8002098
        0x08003302:    a039        9.      ADR      r0,{pc}+0xe6 ; 0x80033e8
        0x08003304:    6861        ah      LDR      r1,[r4,#4]
        0x08003306:    f7fefec7    ....    BL       __0printf$8 ; 0x8002098
        0x0800330a:    a03b        ;.      ADR      r0,{pc}+0xee ; 0x80033f8
        0x0800330c:    68a1        .h      LDR      r1,[r4,#8]
        0x0800330e:    f7fefec3    ....    BL       __0printf$8 ; 0x8002098
        0x08003312:    a03d        =.      ADR      r0,{pc}+0xf6 ; 0x8003408
        0x08003314:    68e1        .h      LDR      r1,[r4,#0xc]
        0x08003316:    f7fefebf    ....    BL       __0printf$8 ; 0x8002098
        0x0800331a:    a03f        ?.      ADR      r0,{pc}+0xfe ; 0x8003418
        0x0800331c:    6921        !i      LDR      r1,[r4,#0x10]
        0x0800331e:    f7fefebb    ....    BL       __0printf$8 ; 0x8002098
        0x08003322:    a041        A.      ADR      r0,{pc}+0x106 ; 0x8003428
        0x08003324:    6961        ai      LDR      r1,[r4,#0x14]
        0x08003326:    f7fefeb7    ....    BL       __0printf$8 ; 0x8002098
        0x0800332a:    a043        C.      ADR      r0,{pc}+0x10e ; 0x8003438
        0x0800332c:    69a1        .i      LDR      r1,[r4,#0x18]
        0x0800332e:    f7fefeb3    ....    BL       __0printf$8 ; 0x8002098
        0x08003332:    a045        E.      ADR      r0,{pc}+0x116 ; 0x8003448
        0x08003334:    69e1        .i      LDR      r1,[r4,#0x1c]
        0x08003336:    f7fefeaf    ....    BL       __0printf$8 ; 0x8002098
        0x0800333a:    a047        G.      ADR      r0,{pc}+0x11e ; 0x8003458
        0x0800333c:    6a21        !j      LDR      r1,[r4,#0x20]
        0x0800333e:    f7fefeab    ....    BL       __0printf$8 ; 0x8002098
        0x08003342:    a049        I.      ADR      r0,{pc}+0x126 ; 0x8003468
        0x08003344:    6b61        ak      LDR      r1,[r4,#0x34]
        0x08003346:    f7fefea7    ....    BL       __0printf$8 ; 0x8002098
        0x0800334a:    a04b        K.      ADR      r0,{pc}+0x12e ; 0x8003478
        0x0800334c:    6ba1        .k      LDR      r1,[r4,#0x38]
        0x0800334e:    f7fefea3    ....    BL       __0printf$8 ; 0x8002098
        0x08003352:    a04d        M.      ADR      r0,{pc}+0x136 ; 0x8003488
        0x08003354:    6be1        .k      LDR      r1,[r4,#0x3c]
        0x08003356:    f7fefe9f    ....    BL       __0printf$8 ; 0x8002098
        0x0800335a:    a04f        O.      ADR      r0,{pc}+0x13e ; 0x8003498
        0x0800335c:    f7fefe9c    ....    BL       __0printf$8 ; 0x8002098
        0x08003360:    2500        .%      MOVS     r5,#0
        0x08003362:    bf00        ..      NOP      
        0x08003364:    e00f        ..      B        0x8003386 ; rt_hw_hard_fault_exception + 178
        0x08003366:    a04f        O.      ADR      r0,{pc}+0x13e ; 0x80034a4
        0x08003368:    6831        1h      LDR      r1,[r6,#0]
        0x0800336a:    f7fefe95    ....    BL       __0printf$8 ; 0x8002098
        0x0800336e:    1d36        6.      ADDS     r6,r6,#4
        0x08003370:    1c6d        m.      ADDS     r5,r5,#1
        0x08003372:    17e9        ..      ASRS     r1,r5,#31
        0x08003374:    eb057111    ...q    ADD      r1,r5,r1,LSR #28
        0x08003378:    1109        ..      ASRS     r1,r1,#4
        0x0800337a:    eba51101    ....    SUB      r1,r5,r1,LSL #4
        0x0800337e:    b911        ..      CBNZ     r1,0x8003386 ; rt_hw_hard_fault_exception + 178
        0x08003380:    a047        G.      ADR      r0,{pc}+0x120 ; 0x80034a0
        0x08003382:    f7fefe89    ....    BL       __0printf$8 ; 0x8002098
        0x08003386:    f5b56f80    ...o    CMP      r5,#0x400
        0x0800338a:    dbec        ..      BLT      0x8003366 ; rt_hw_hard_fault_exception + 146
        0x0800338c:    a044        D.      ADR      r0,{pc}+0x114 ; 0x80034a0
        0x0800338e:    f7fefe83    ....    BL       __0printf$8 ; 0x8002098
        0x08003392:    bf00        ..      NOP      
        0x08003394:    e7fe        ..      B        0x8003394 ; rt_hw_hard_fault_exception + 192
    $d
        0x08003396:    0000        ..      DCW    0
        0x08003398:    3a727370    psr:    DCD    980579184
        0x0800339c:    25783020     0x%    DCD    628633632
        0x080033a0:    0d783830    08x.    DCD    225982512
        0x080033a4:    0000000a    ....    DCD    10
        0x080033a8:    3a303072    r00:    DCD    976236658
        0x080033ac:    25783020     0x%    DCD    628633632
        0x080033b0:    0d783830    08x.    DCD    225982512
        0x080033b4:    0000000a    ....    DCD    10
        0x080033b8:    3a313072    r01:    DCD    976302194
        0x080033bc:    25783020     0x%    DCD    628633632
        0x080033c0:    0d783830    08x.    DCD    225982512
        0x080033c4:    0000000a    ....    DCD    10
        0x080033c8:    3a323072    r02:    DCD    976367730
        0x080033cc:    25783020     0x%    DCD    628633632
        0x080033d0:    0d783830    08x.    DCD    225982512
        0x080033d4:    0000000a    ....    DCD    10
        0x080033d8:    3a333072    r03:    DCD    976433266
        0x080033dc:    25783020     0x%    DCD    628633632
        0x080033e0:    0d783830    08x.    DCD    225982512
        0x080033e4:    0000000a    ....    DCD    10
        0x080033e8:    3a343072    r04:    DCD    976498802
        0x080033ec:    25783020     0x%    DCD    628633632
        0x080033f0:    0d783830    08x.    DCD    225982512
        0x080033f4:    0000000a    ....    DCD    10
        0x080033f8:    3a353072    r05:    DCD    976564338
        0x080033fc:    25783020     0x%    DCD    628633632
        0x08003400:    0d783830    08x.    DCD    225982512
        0x08003404:    0000000a    ....    DCD    10
        0x08003408:    3a363072    r06:    DCD    976629874
        0x0800340c:    25783020     0x%    DCD    628633632
        0x08003410:    0d783830    08x.    DCD    225982512
        0x08003414:    0000000a    ....    DCD    10
        0x08003418:    3a373072    r07:    DCD    976695410
        0x0800341c:    25783020     0x%    DCD    628633632
        0x08003420:    0d783830    08x.    DCD    225982512
        0x08003424:    0000000a    ....    DCD    10
        0x08003428:    3a383072    r08:    DCD    976760946
        0x0800342c:    25783020     0x%    DCD    628633632
        0x08003430:    0d783830    08x.    DCD    225982512
        0x08003434:    0000000a    ....    DCD    10
        0x08003438:    3a393072    r09:    DCD    976826482
        0x0800343c:    25783020     0x%    DCD    628633632
        0x08003440:    0d783830    08x.    DCD    225982512
        0x08003444:    0000000a    ....    DCD    10
        0x08003448:    3a303172    r10:    DCD    976236914
        0x0800344c:    25783020     0x%    DCD    628633632
        0x08003450:    0d783830    08x.    DCD    225982512
        0x08003454:    0000000a    ....    DCD    10
        0x08003458:    3a313172    r11:    DCD    976302450
        0x0800345c:    25783020     0x%    DCD    628633632
        0x08003460:    0d783830    08x.    DCD    225982512
        0x08003464:    0000000a    ....    DCD    10
        0x08003468:    3a323172    r12:    DCD    976367986
        0x0800346c:    25783020     0x%    DCD    628633632
        0x08003470:    0d783830    08x.    DCD    225982512
        0x08003474:    0000000a    ....    DCD    10
        0x08003478:    3a726c20     lr:    DCD    980577312
        0x0800347c:    25783020     0x%    DCD    628633632
        0x08003480:    0d783830    08x.    DCD    225982512
        0x08003484:    0000000a    ....    DCD    10
        0x08003488:    3a637020     pc:    DCD    979595296
        0x0800348c:    25783020     0x%    DCD    628633632
        0x08003490:    0d783830    08x.    DCD    225982512
        0x08003494:    0000000a    ....    DCD    10
        0x08003498:    63617473    stac    DCD    1667331187
        0x0800349c:    203a736b    ks:     DCD    540701547
        0x080034a0:    00000a0d    ....    DCD    2573
        0x080034a4:    78383025    %08x    DCD    2016948261
        0x080034a8:    00000020     ...    DCD    32
    $t
    i.uxListRemove
    uxListRemove
        0x080034ac:    4601        .F      MOV      r1,r0
        0x080034ae:    690a        .i      LDR      r2,[r1,#0x10]
        0x080034b0:    e9d13001    ...0    LDRD     r3,r0,[r1,#4]
        0x080034b4:    6098        .`      STR      r0,[r3,#8]
        0x080034b6:    e9d10301    ....    LDRD     r0,r3,[r1,#4]
        0x080034ba:    6058        X`      STR      r0,[r3,#4]
        0x080034bc:    6850        Ph      LDR      r0,[r2,#4]
        0x080034be:    4288        .B      CMP      r0,r1
        0x080034c0:    d101        ..      BNE      0x80034c6 ; uxListRemove + 26
        0x080034c2:    6888        .h      LDR      r0,[r1,#8]
        0x080034c4:    6050        P`      STR      r0,[r2,#4]
        0x080034c6:    2000        .       MOVS     r0,#0
        0x080034c8:    6108        .a      STR      r0,[r1,#0x10]
        0x080034ca:    6810        .h      LDR      r0,[r2,#0]
        0x080034cc:    1e40        @.      SUBS     r0,r0,#1
        0x080034ce:    6010        .`      STR      r0,[r2,#0]
        0x080034d0:    6810        .h      LDR      r0,[r2,#0]
        0x080034d2:    4770        pG      BX       lr
    i.vApplicationGetIdleTaskMemory
    vApplicationGetIdleTaskMemory
        0x080034d4:    4b03        .K      LDR      r3,[pc,#12] ; [0x80034e4] = 0x20000b8c
        0x080034d6:    6003        .`      STR      r3,[r0,#0]
        0x080034d8:    4b03        .K      LDR      r3,[pc,#12] ; [0x80034e8] = 0x20000be8
        0x080034da:    600b        .`      STR      r3,[r1,#0]
        0x080034dc:    2380        .#      MOVS     r3,#0x80
        0x080034de:    6013        .`      STR      r3,[r2,#0]
        0x080034e0:    4770        pG      BX       lr
    $d
        0x080034e2:    0000        ..      DCW    0
        0x080034e4:    20000b8c    ...     DCD    536873868
        0x080034e8:    20000be8    ...     DCD    536873960
    $t
    i.vApplicationGetTimerTaskMemory
    vApplicationGetTimerTaskMemory
        0x080034ec:    4b03        .K      LDR      r3,[pc,#12] ; [0x80034fc] = 0x20000de8
        0x080034ee:    6003        .`      STR      r3,[r0,#0]
        0x080034f0:    4b03        .K      LDR      r3,[pc,#12] ; [0x8003500] = 0x20000e44
        0x080034f2:    600b        .`      STR      r3,[r1,#0]
        0x080034f4:    f44f7380    O..s    MOV      r3,#0x100
        0x080034f8:    6013        .`      STR      r3,[r2,#0]
        0x080034fa:    4770        pG      BX       lr
    $d
        0x080034fc:    20000de8    ...     DCD    536874472
        0x08003500:    20000e44    D..     DCD    536874564
    $t
    i.vListInitialise
    vListInitialise
        0x08003504:    f1000108    ....    ADD      r1,r0,#8
        0x08003508:    6041        A`      STR      r1,[r0,#4]
        0x0800350a:    f04f31ff    O..1    MOV      r1,#0xffffffff
        0x0800350e:    6081        .`      STR      r1,[r0,#8]
        0x08003510:    f1000108    ....    ADD      r1,r0,#8
        0x08003514:    60c1        .`      STR      r1,[r0,#0xc]
        0x08003516:    6101        .a      STR      r1,[r0,#0x10]
        0x08003518:    2100        .!      MOVS     r1,#0
        0x0800351a:    6001        .`      STR      r1,[r0,#0]
        0x0800351c:    4770        pG      BX       lr
    i.vListInitialiseItem
    vListInitialiseItem
        0x0800351e:    2100        .!      MOVS     r1,#0
        0x08003520:    6101        .a      STR      r1,[r0,#0x10]
        0x08003522:    4770        pG      BX       lr
    i.vListInsert
    vListInsert
        0x08003524:    b510        ..      PUSH     {r4,lr}
        0x08003526:    4602        .F      MOV      r2,r0
        0x08003528:    680b        .h      LDR      r3,[r1,#0]
        0x0800352a:    1c5c        \.      ADDS     r4,r3,#1
        0x0800352c:    b90c        ..      CBNZ     r4,0x8003532 ; vListInsert + 14
        0x0800352e:    6910        .i      LDR      r0,[r2,#0x10]
        0x08003530:    e007        ..      B        0x8003542 ; vListInsert + 30
        0x08003532:    f1020008    ....    ADD      r0,r2,#8
        0x08003536:    e000        ..      B        0x800353a ; vListInsert + 22
        0x08003538:    6840        @h      LDR      r0,[r0,#4]
        0x0800353a:    6844        Dh      LDR      r4,[r0,#4]
        0x0800353c:    6824        $h      LDR      r4,[r4,#0]
        0x0800353e:    429c        .B      CMP      r4,r3
        0x08003540:    d9fa        ..      BLS      0x8003538 ; vListInsert + 20
        0x08003542:    6844        Dh      LDR      r4,[r0,#4]
        0x08003544:    604c        L`      STR      r4,[r1,#4]
        0x08003546:    684c        Lh      LDR      r4,[r1,#4]
        0x08003548:    60a1        .`      STR      r1,[r4,#8]
        0x0800354a:    6088        .`      STR      r0,[r1,#8]
        0x0800354c:    6041        A`      STR      r1,[r0,#4]
        0x0800354e:    610a        .a      STR      r2,[r1,#0x10]
        0x08003550:    6814        .h      LDR      r4,[r2,#0]
        0x08003552:    1c64        d.      ADDS     r4,r4,#1
        0x08003554:    6014        .`      STR      r4,[r2,#0]
        0x08003556:    bd10        ..      POP      {r4,pc}
    i.vListInsertEnd
    vListInsertEnd
        0x08003558:    6842        Bh      LDR      r2,[r0,#4]
        0x0800355a:    604a        J`      STR      r2,[r1,#4]
        0x0800355c:    6893        .h      LDR      r3,[r2,#8]
        0x0800355e:    608b        .`      STR      r3,[r1,#8]
        0x08003560:    6893        .h      LDR      r3,[r2,#8]
        0x08003562:    6059        Y`      STR      r1,[r3,#4]
        0x08003564:    6091        .`      STR      r1,[r2,#8]
        0x08003566:    6108        .a      STR      r0,[r1,#0x10]
        0x08003568:    6803        .h      LDR      r3,[r0,#0]
        0x0800356a:    1c5b        [.      ADDS     r3,r3,#1
        0x0800356c:    6003        .`      STR      r3,[r0,#0]
        0x0800356e:    4770        pG      BX       lr
    i.vPortEnterCritical
    vPortEnterCritical
        0x08003570:    bf00        ..      NOP      
        0x08003572:    2050        P       MOVS     r0,#0x50
        0x08003574:    f3808811    ....    MSR      BASEPRI,r0
        0x08003578:    f3bf8f4f    ..O.    DSB      
        0x0800357c:    f3bf8f6f    ..o.    ISB      
        0x08003580:    bf00        ..      NOP      
        0x08003582:    480e        .H      LDR      r0,[pc,#56] ; [0x80035bc] = 0x20000088
        0x08003584:    6800        .h      LDR      r0,[r0,#0]
        0x08003586:    1c40        @.      ADDS     r0,r0,#1
        0x08003588:    490c        .I      LDR      r1,[pc,#48] ; [0x80035bc] = 0x20000088
        0x0800358a:    6008        .`      STR      r0,[r1,#0]
        0x0800358c:    4608        .F      MOV      r0,r1
        0x0800358e:    6800        .h      LDR      r0,[r0,#0]
        0x08003590:    2801        .(      CMP      r0,#1
        0x08003592:    d112        ..      BNE      0x80035ba ; vPortEnterCritical + 74
        0x08003594:    480a        .H      LDR      r0,[pc,#40] ; [0x80035c0] = 0xe000ed04
        0x08003596:    6800        .h      LDR      r0,[r0,#0]
        0x08003598:    b2c0        ..      UXTB     r0,r0
        0x0800359a:    b908        ..      CBNZ     r0,0x80035a0 ; vPortEnterCritical + 48
        0x0800359c:    2001        .       MOVS     r0,#1
        0x0800359e:    e000        ..      B        0x80035a2 ; vPortEnterCritical + 50
        0x080035a0:    2000        .       MOVS     r0,#0
        0x080035a2:    b950        P.      CBNZ     r0,0x80035ba ; vPortEnterCritical + 74
        0x080035a4:    bf00        ..      NOP      
        0x080035a6:    2050        P       MOVS     r0,#0x50
        0x080035a8:    f3808811    ....    MSR      BASEPRI,r0
        0x080035ac:    f3bf8f4f    ..O.    DSB      
        0x080035b0:    f3bf8f6f    ..o.    ISB      
        0x080035b4:    bf00        ..      NOP      
        0x080035b6:    bf00        ..      NOP      
        0x080035b8:    e7fe        ..      B        0x80035b8 ; vPortEnterCritical + 72
        0x080035ba:    4770        pG      BX       lr
    $d
        0x080035bc:    20000088    ...     DCD    536871048
        0x080035c0:    e000ed04    ....    DCD    3758157060
    $t
    i.vPortExitCritical
    vPortExitCritical
        0x080035c4:    480d        .H      LDR      r0,[pc,#52] ; [0x80035fc] = 0x20000088
        0x080035c6:    6800        .h      LDR      r0,[r0,#0]
        0x080035c8:    b950        P.      CBNZ     r0,0x80035e0 ; vPortExitCritical + 28
        0x080035ca:    bf00        ..      NOP      
        0x080035cc:    2050        P       MOVS     r0,#0x50
        0x080035ce:    f3808811    ....    MSR      BASEPRI,r0
        0x080035d2:    f3bf8f4f    ..O.    DSB      
        0x080035d6:    f3bf8f6f    ..o.    ISB      
        0x080035da:    bf00        ..      NOP      
        0x080035dc:    bf00        ..      NOP      
        0x080035de:    e7fe        ..      B        0x80035de ; vPortExitCritical + 26
        0x080035e0:    4806        .H      LDR      r0,[pc,#24] ; [0x80035fc] = 0x20000088
        0x080035e2:    6800        .h      LDR      r0,[r0,#0]
        0x080035e4:    1e40        @.      SUBS     r0,r0,#1
        0x080035e6:    4905        .I      LDR      r1,[pc,#20] ; [0x80035fc] = 0x20000088
        0x080035e8:    6008        .`      STR      r0,[r1,#0]
        0x080035ea:    4608        .F      MOV      r0,r1
        0x080035ec:    6800        .h      LDR      r0,[r0,#0]
        0x080035ee:    b920         .      CBNZ     r0,0x80035fa ; vPortExitCritical + 54
        0x080035f0:    2000        .       MOVS     r0,#0
        0x080035f2:    f3808811    ....    MSR      BASEPRI,r0
        0x080035f6:    bf00        ..      NOP      
        0x080035f8:    bf00        ..      NOP      
        0x080035fa:    4770        pG      BX       lr
    $d
        0x080035fc:    20000088    ...     DCD    536871048
    $t
    i.vPortFree
    vPortFree
        0x08003600:    b570        p.      PUSH     {r4-r6,lr}
        0x08003602:    4606        .F      MOV      r6,r0
        0x08003604:    4635        5F      MOV      r5,r6
        0x08003606:    2e00        ..      CMP      r6,#0
        0x08003608:    d03f        ?.      BEQ      0x800368a ; vPortFree + 138
        0x0800360a:    3d08        .=      SUBS     r5,r5,#8
        0x0800360c:    462c        ,F      MOV      r4,r5
        0x0800360e:    491f        .I      LDR      r1,[pc,#124] ; [0x800368c] = 0x20000084
        0x08003610:    6860        `h      LDR      r0,[r4,#4]
        0x08003612:    6809        .h      LDR      r1,[r1,#0]
        0x08003614:    4008        .@      ANDS     r0,r0,r1
        0x08003616:    b108        ..      CBZ      r0,0x800361c ; vPortFree + 28
        0x08003618:    2001        .       MOVS     r0,#1
        0x0800361a:    e000        ..      B        0x800361e ; vPortFree + 30
        0x0800361c:    2000        .       MOVS     r0,#0
        0x0800361e:    b950        P.      CBNZ     r0,0x8003636 ; vPortFree + 54
        0x08003620:    bf00        ..      NOP      
        0x08003622:    2050        P       MOVS     r0,#0x50
        0x08003624:    f3808811    ....    MSR      BASEPRI,r0
        0x08003628:    f3bf8f4f    ..O.    DSB      
        0x0800362c:    f3bf8f6f    ..o.    ISB      
        0x08003630:    bf00        ..      NOP      
        0x08003632:    bf00        ..      NOP      
        0x08003634:    e7fe        ..      B        0x8003634 ; vPortFree + 52
        0x08003636:    6820         h      LDR      r0,[r4,#0]
        0x08003638:    b908        ..      CBNZ     r0,0x800363e ; vPortFree + 62
        0x0800363a:    2001        .       MOVS     r0,#1
        0x0800363c:    e000        ..      B        0x8003640 ; vPortFree + 64
        0x0800363e:    2000        .       MOVS     r0,#0
        0x08003640:    b950        P.      CBNZ     r0,0x8003658 ; vPortFree + 88
        0x08003642:    bf00        ..      NOP      
        0x08003644:    2050        P       MOVS     r0,#0x50
        0x08003646:    f3808811    ....    MSR      BASEPRI,r0
        0x0800364a:    f3bf8f4f    ..O.    DSB      
        0x0800364e:    f3bf8f6f    ..o.    ISB      
        0x08003652:    bf00        ..      NOP      
        0x08003654:    bf00        ..      NOP      
        0x08003656:    e7fe        ..      B        0x8003656 ; vPortFree + 86
        0x08003658:    490c        .I      LDR      r1,[pc,#48] ; [0x800368c] = 0x20000084
        0x0800365a:    6860        `h      LDR      r0,[r4,#4]
        0x0800365c:    6809        .h      LDR      r1,[r1,#0]
        0x0800365e:    4008        .@      ANDS     r0,r0,r1
        0x08003660:    b198        ..      CBZ      r0,0x800368a ; vPortFree + 138
        0x08003662:    6820         h      LDR      r0,[r4,#0]
        0x08003664:    b988        ..      CBNZ     r0,0x800368a ; vPortFree + 138
        0x08003666:    4909        .I      LDR      r1,[pc,#36] ; [0x800368c] = 0x20000084
        0x08003668:    6860        `h      LDR      r0,[r4,#4]
        0x0800366a:    6809        .h      LDR      r1,[r1,#0]
        0x0800366c:    4388        .C      BICS     r0,r0,r1
        0x0800366e:    6060        ``      STR      r0,[r4,#4]
        0x08003670:    f000f974    ..t.    BL       vTaskSuspendAll ; 0x800395c
        0x08003674:    4906        .I      LDR      r1,[pc,#24] ; [0x8003690] = 0x2000007c
        0x08003676:    6860        `h      LDR      r0,[r4,#4]
        0x08003678:    6809        .h      LDR      r1,[r1,#0]
        0x0800367a:    4408        .D      ADD      r0,r0,r1
        0x0800367c:    4904        .I      LDR      r1,[pc,#16] ; [0x8003690] = 0x2000007c
        0x0800367e:    6008        .`      STR      r0,[r1,#0]
        0x08003680:    4620         F      MOV      r0,r4
        0x08003682:    f7fffaf9    ....    BL       prvInsertBlockIntoFreeList ; 0x8002c78
        0x08003686:    f000ff1f    ....    BL       xTaskResumeAll ; 0x80044c8
        0x0800368a:    bd70        p.      POP      {r4-r6,pc}
    $d
        0x0800368c:    20000084    ...     DCD    536871044
        0x08003690:    2000007c    |..     DCD    536871036
    $t
    i.vPortSetupTimerInterrupt
    vPortSetupTimerInterrupt
        0x08003694:    2000        .       MOVS     r0,#0
        0x08003696:    f04f21e0    O..!    MOV      r1,#0xe000e000
        0x0800369a:    6108        .a      STR      r0,[r1,#0x10]
        0x0800369c:    6188        .a      STR      r0,[r1,#0x18]
        0x0800369e:    4806        .H      LDR      r0,[pc,#24] ; [0x80036b8] = 0x20000010
        0x080036a0:    6800        .h      LDR      r0,[r0,#0]
        0x080036a2:    f44f717a    O.zq    MOV      r1,#0x3e8
        0x080036a6:    fbb0f0f1    ....    UDIV     r0,r0,r1
        0x080036aa:    1e40        @.      SUBS     r0,r0,#1
        0x080036ac:    f04f21e0    O..!    MOV      r1,#0xe000e000
        0x080036b0:    6148        Ha      STR      r0,[r1,#0x14]
        0x080036b2:    2007        .       MOVS     r0,#7
        0x080036b4:    6108        .a      STR      r0,[r1,#0x10]
        0x080036b6:    4770        pG      BX       lr
    $d
        0x080036b8:    20000010    ...     DCD    536870928
    $t
    i.vPortValidateInterruptPriority
    vPortValidateInterruptPriority
        0x080036bc:    b570        p.      PUSH     {r4-r6,lr}
        0x080036be:    f7fcfd8b    ....    BL       vPortGetIPSR ; 0x80001d8
        0x080036c2:    4604        .F      MOV      r4,r0
        0x080036c4:    2c10        .,      CMP      r4,#0x10
        0x080036c6:    d316        ..      BCC      0x80036f6 ; vPortValidateInterruptPriority + 58
        0x080036c8:    f10420e0    ...     ADD      r0,r4,#0xe000e000
        0x080036cc:    f89053f0    ...S    LDRB     r5,[r0,#0x3f0]
        0x080036d0:    4815        .H      LDR      r0,[pc,#84] ; [0x8003728] = 0x2000008c
        0x080036d2:    7800        .x      LDRB     r0,[r0,#0]
        0x080036d4:    4285        .B      CMP      r5,r0
        0x080036d6:    db01        ..      BLT      0x80036dc ; vPortValidateInterruptPriority + 32
        0x080036d8:    2001        .       MOVS     r0,#1
        0x080036da:    e000        ..      B        0x80036de ; vPortValidateInterruptPriority + 34
        0x080036dc:    2000        .       MOVS     r0,#0
        0x080036de:    b950        P.      CBNZ     r0,0x80036f6 ; vPortValidateInterruptPriority + 58
        0x080036e0:    bf00        ..      NOP      
        0x080036e2:    2050        P       MOVS     r0,#0x50
        0x080036e4:    f3808811    ....    MSR      BASEPRI,r0
        0x080036e8:    f3bf8f4f    ..O.    DSB      
        0x080036ec:    f3bf8f6f    ..o.    ISB      
        0x080036f0:    bf00        ..      NOP      
        0x080036f2:    bf00        ..      NOP      
        0x080036f4:    e7fe        ..      B        0x80036f4 ; vPortValidateInterruptPriority + 56
        0x080036f6:    480d        .H      LDR      r0,[pc,#52] ; [0x800372c] = 0xe000ed0c
        0x080036f8:    6800        .h      LDR      r0,[r0,#0]
        0x080036fa:    f40060e0    ...`    AND      r0,r0,#0x700
        0x080036fe:    490c        .I      LDR      r1,[pc,#48] ; [0x8003730] = 0x20000090
        0x08003700:    6809        .h      LDR      r1,[r1,#0]
        0x08003702:    4288        .B      CMP      r0,r1
        0x08003704:    d801        ..      BHI      0x800370a ; vPortValidateInterruptPriority + 78
        0x08003706:    2001        .       MOVS     r0,#1
        0x08003708:    e000        ..      B        0x800370c ; vPortValidateInterruptPriority + 80
        0x0800370a:    2000        .       MOVS     r0,#0
        0x0800370c:    b950        P.      CBNZ     r0,0x8003724 ; vPortValidateInterruptPriority + 104
        0x0800370e:    bf00        ..      NOP      
        0x08003710:    2050        P       MOVS     r0,#0x50
        0x08003712:    f3808811    ....    MSR      BASEPRI,r0
        0x08003716:    f3bf8f4f    ..O.    DSB      
        0x0800371a:    f3bf8f6f    ..o.    ISB      
        0x0800371e:    bf00        ..      NOP      
        0x08003720:    bf00        ..      NOP      
        0x08003722:    e7fe        ..      B        0x8003722 ; vPortValidateInterruptPriority + 102
        0x08003724:    bd70        p.      POP      {r4-r6,pc}
    $d
        0x08003726:    0000        ..      DCW    0
        0x08003728:    2000008c    ...     DCD    536871052
        0x0800372c:    e000ed0c    ....    DCD    3758157068
        0x08003730:    20000090    ...     DCD    536871056
    $t
    i.vQueueAddToRegistry
    vQueueAddToRegistry
        0x08003734:    4602        .F      MOV      r2,r0
        0x08003736:    2000        .       MOVS     r0,#0
        0x08003738:    e00b        ..      B        0x8003752 ; vQueueAddToRegistry + 30
        0x0800373a:    4b08        .K      LDR      r3,[pc,#32] ; [0x800375c] = 0x20000570
        0x0800373c:    f8533030    S.00    LDR      r3,[r3,r0,LSL #3]
        0x08003740:    b933        3.      CBNZ     r3,0x8003750 ; vQueueAddToRegistry + 28
        0x08003742:    4b06        .K      LDR      r3,[pc,#24] ; [0x800375c] = 0x20000570
        0x08003744:    f8431030    C.0.    STR      r1,[r3,r0,LSL #3]
        0x08003748:    eb0303c0    ....    ADD      r3,r3,r0,LSL #3
        0x0800374c:    605a        Z`      STR      r2,[r3,#4]
        0x0800374e:    e002        ..      B        0x8003756 ; vQueueAddToRegistry + 34
        0x08003750:    1c40        @.      ADDS     r0,r0,#1
        0x08003752:    2808        .(      CMP      r0,#8
        0x08003754:    d3f1        ..      BCC      0x800373a ; vQueueAddToRegistry + 6
        0x08003756:    bf00        ..      NOP      
        0x08003758:    4770        pG      BX       lr
    $d
        0x0800375a:    0000        ..      DCW    0
        0x0800375c:    20000570    p..     DCD    536872304
    $t
    i.vQueueWaitForMessageRestricted
    vQueueWaitForMessageRestricted
        0x08003760:    e92d41f0    -..A    PUSH     {r4-r8,lr}
        0x08003764:    4605        .F      MOV      r5,r0
        0x08003766:    460e        .F      MOV      r6,r1
        0x08003768:    4617        .F      MOV      r7,r2
        0x0800376a:    462c        ,F      MOV      r4,r5
        0x0800376c:    f7ffff00    ....    BL       vPortEnterCritical ; 0x8003570
        0x08003770:    f9940044    ..D.    LDRSB    r0,[r4,#0x44]
        0x08003774:    1c40        @.      ADDS     r0,r0,#1
        0x08003776:    b910        ..      CBNZ     r0,0x800377e ; vQueueWaitForMessageRestricted + 30
        0x08003778:    2000        .       MOVS     r0,#0
        0x0800377a:    f8840044    ..D.    STRB     r0,[r4,#0x44]
        0x0800377e:    f9940045    ..E.    LDRSB    r0,[r4,#0x45]
        0x08003782:    1c40        @.      ADDS     r0,r0,#1
        0x08003784:    b910        ..      CBNZ     r0,0x800378c ; vQueueWaitForMessageRestricted + 44
        0x08003786:    2000        .       MOVS     r0,#0
        0x08003788:    f8840045    ..E.    STRB     r0,[r4,#0x45]
        0x0800378c:    f7ffff1a    ....    BL       vPortExitCritical ; 0x80035c4
        0x08003790:    6ba0        .k      LDR      r0,[r4,#0x38]
        0x08003792:    b928        (.      CBNZ     r0,0x80037a0 ; vQueueWaitForMessageRestricted + 64
        0x08003794:    463a        :F      MOV      r2,r7
        0x08003796:    4631        1F      MOV      r1,r6
        0x08003798:    f1040024    ..$.    ADD      r0,r4,#0x24
        0x0800379c:    f000f862    ..b.    BL       vTaskPlaceOnEventListRestricted ; 0x8003864
        0x080037a0:    4620         F      MOV      r0,r4
        0x080037a2:    f7fffc92    ....    BL       prvUnlockQueue ; 0x80030ca
        0x080037a6:    e8bd81f0    ....    POP      {r4-r8,pc}
        0x080037aa:    0000        ..      MOVS     r0,r0
    i.vTaskDelay
    vTaskDelay
        0x080037ac:    b570        p.      PUSH     {r4-r6,lr}
        0x080037ae:    4604        .F      MOV      r4,r0
        0x080037b0:    2500        .%      MOVS     r5,#0
        0x080037b2:    b1d4        ..      CBZ      r4,0x80037ea ; vTaskDelay + 62
        0x080037b4:    4812        .H      LDR      r0,[pc,#72] ; [0x8003800] = 0x20000054
        0x080037b6:    6800        .h      LDR      r0,[r0,#0]
        0x080037b8:    b908        ..      CBNZ     r0,0x80037be ; vTaskDelay + 18
        0x080037ba:    2001        .       MOVS     r0,#1
        0x080037bc:    e000        ..      B        0x80037c0 ; vTaskDelay + 20
        0x080037be:    2000        .       MOVS     r0,#0
        0x080037c0:    b950        P.      CBNZ     r0,0x80037d8 ; vTaskDelay + 44
        0x080037c2:    bf00        ..      NOP      
        0x080037c4:    2050        P       MOVS     r0,#0x50
        0x080037c6:    f3808811    ....    MSR      BASEPRI,r0
        0x080037ca:    f3bf8f4f    ..O.    DSB      
        0x080037ce:    f3bf8f6f    ..o.    ISB      
        0x080037d2:    bf00        ..      NOP      
        0x080037d4:    bf00        ..      NOP      
        0x080037d6:    e7fe        ..      B        0x80037d6 ; vTaskDelay + 42
        0x080037d8:    f000f8c0    ....    BL       vTaskSuspendAll ; 0x800395c
        0x080037dc:    2100        .!      MOVS     r1,#0
        0x080037de:    4620         F      MOV      r0,r4
        0x080037e0:    f7feffcc    ....    BL       prvAddCurrentTaskToDelayedList ; 0x800277c
        0x080037e4:    f000fe70    ..p.    BL       xTaskResumeAll ; 0x80044c8
        0x080037e8:    4605        .F      MOV      r5,r0
        0x080037ea:    b93d        =.      CBNZ     r5,0x80037fc ; vTaskDelay + 80
        0x080037ec:    f04f5080    O..P    MOV      r0,#0x10000000
        0x080037f0:    4904        .I      LDR      r1,[pc,#16] ; [0x8003804] = 0xe000ed04
        0x080037f2:    6008        .`      STR      r0,[r1,#0]
        0x080037f4:    f3bf8f4f    ..O.    DSB      
        0x080037f8:    f3bf8f6f    ..o.    ISB      
        0x080037fc:    bd70        p.      POP      {r4-r6,pc}
    $d
        0x080037fe:    0000        ..      DCW    0
        0x08003800:    20000054    T..     DCD    536870996
        0x08003804:    e000ed04    ....    DCD    3758157060
    $t
    i.vTaskInternalSetTimeOutState
    vTaskInternalSetTimeOutState
        0x08003808:    4903        .I      LDR      r1,[pc,#12] ; [0x8003818] = 0x20000044
        0x0800380a:    6809        .h      LDR      r1,[r1,#0]
        0x0800380c:    6001        .`      STR      r1,[r0,#0]
        0x0800380e:    4903        .I      LDR      r1,[pc,#12] ; [0x800381c] = 0x20000030
        0x08003810:    6809        .h      LDR      r1,[r1,#0]
        0x08003812:    6041        A`      STR      r1,[r0,#4]
        0x08003814:    4770        pG      BX       lr
    $d
        0x08003816:    0000        ..      DCW    0
        0x08003818:    20000044    D..     DCD    536870980
        0x0800381c:    20000030    0..     DCD    536870960
    $t
    i.vTaskMissedYield
    vTaskMissedYield
        0x08003820:    2001        .       MOVS     r0,#1
        0x08003822:    4901        .I      LDR      r1,[pc,#4] ; [0x8003828] = 0x20000040
        0x08003824:    6008        .`      STR      r0,[r1,#0]
        0x08003826:    4770        pG      BX       lr
    $d
        0x08003828:    20000040    @..     DCD    536870976
    $t
    i.vTaskPlaceOnEventList
    vTaskPlaceOnEventList
        0x0800382c:    b570        p.      PUSH     {r4-r6,lr}
        0x0800382e:    4604        .F      MOV      r4,r0
        0x08003830:    460d        .F      MOV      r5,r1
        0x08003832:    b954        T.      CBNZ     r4,0x800384a ; vTaskPlaceOnEventList + 30
        0x08003834:    bf00        ..      NOP      
        0x08003836:    2050        P       MOVS     r0,#0x50
        0x08003838:    f3808811    ....    MSR      BASEPRI,r0
        0x0800383c:    f3bf8f4f    ..O.    DSB      
        0x08003840:    f3bf8f6f    ..o.    ISB      
        0x08003844:    bf00        ..      NOP      
        0x08003846:    bf00        ..      NOP      
        0x08003848:    e7fe        ..      B        0x8003848 ; vTaskPlaceOnEventList + 28
        0x0800384a:    4805        .H      LDR      r0,[pc,#20] ; [0x8003860] = 0x2000001c
        0x0800384c:    6801        .h      LDR      r1,[r0,#0]
        0x0800384e:    3118        .1      ADDS     r1,r1,#0x18
        0x08003850:    4620         F      MOV      r0,r4
        0x08003852:    f7fffe67    ..g.    BL       vListInsert ; 0x8003524
        0x08003856:    2101        .!      MOVS     r1,#1
        0x08003858:    4628        (F      MOV      r0,r5
        0x0800385a:    f7feff8f    ....    BL       prvAddCurrentTaskToDelayedList ; 0x800277c
        0x0800385e:    bd70        p.      POP      {r4-r6,pc}
    $d
        0x08003860:    2000001c    ...     DCD    536870940
    $t
    i.vTaskPlaceOnEventListRestricted
    vTaskPlaceOnEventListRestricted
        0x08003864:    b570        p.      PUSH     {r4-r6,lr}
        0x08003866:    4605        .F      MOV      r5,r0
        0x08003868:    460e        .F      MOV      r6,r1
        0x0800386a:    4614        .F      MOV      r4,r2
        0x0800386c:    b955        U.      CBNZ     r5,0x8003884 ; vTaskPlaceOnEventListRestricted + 32
        0x0800386e:    bf00        ..      NOP      
        0x08003870:    2050        P       MOVS     r0,#0x50
        0x08003872:    f3808811    ....    MSR      BASEPRI,r0
        0x08003876:    f3bf8f4f    ..O.    DSB      
        0x0800387a:    f3bf8f6f    ..o.    ISB      
        0x0800387e:    bf00        ..      NOP      
        0x08003880:    bf00        ..      NOP      
        0x08003882:    e7fe        ..      B        0x8003882 ; vTaskPlaceOnEventListRestricted + 30
        0x08003884:    4806        .H      LDR      r0,[pc,#24] ; [0x80038a0] = 0x2000001c
        0x08003886:    6801        .h      LDR      r1,[r0,#0]
        0x08003888:    3118        .1      ADDS     r1,r1,#0x18
        0x0800388a:    4628        (F      MOV      r0,r5
        0x0800388c:    f7fffe64    ..d.    BL       vListInsertEnd ; 0x8003558
        0x08003890:    b10c        ..      CBZ      r4,0x8003896 ; vTaskPlaceOnEventListRestricted + 50
        0x08003892:    f04f36ff    O..6    MOV      r6,#0xffffffff
        0x08003896:    4621        !F      MOV      r1,r4
        0x08003898:    4630        0F      MOV      r0,r6
        0x0800389a:    f7feff6f    ..o.    BL       prvAddCurrentTaskToDelayedList ; 0x800277c
        0x0800389e:    bd70        p.      POP      {r4-r6,pc}
    $d
        0x080038a0:    2000001c    ...     DCD    536870940
    $t
    i.vTaskStartScheduler
    vTaskStartScheduler
        0x080038a4:    b510        ..      PUSH     {r4,lr}
        0x080038a6:    b086        ..      SUB      sp,sp,#0x18
        0x080038a8:    2000        .       MOVS     r0,#0
        0x080038aa:    9005        ..      STR      r0,[sp,#0x14]
        0x080038ac:    9004        ..      STR      r0,[sp,#0x10]
        0x080038ae:    aa03        ..      ADD      r2,sp,#0xc
        0x080038b0:    a904        ..      ADD      r1,sp,#0x10
        0x080038b2:    a805        ..      ADD      r0,sp,#0x14
        0x080038b4:    f7fffe0e    ....    BL       vApplicationGetIdleTaskMemory ; 0x80034d4
        0x080038b8:    2200        ."      MOVS     r2,#0
        0x080038ba:    e9dd1004    ....    LDRD     r1,r0,[sp,#0x10]
        0x080038be:    4613        .F      MOV      r3,r2
        0x080038c0:    e9cd2100    ...!    STRD     r2,r1,[sp,#0]
        0x080038c4:    9002        ..      STR      r0,[sp,#8]
        0x080038c6:    a11e        ..      ADR      r1,{pc}+0x7a ; 0x8003940
        0x080038c8:    481f        .H      LDR      r0,[pc,#124] ; [0x8003948] = 0x8002b09
        0x080038ca:    9a03        ..      LDR      r2,[sp,#0xc]
        0x080038cc:    f000fc4a    ..J.    BL       xTaskCreateStatic ; 0x8004164
        0x080038d0:    491e        .I      LDR      r1,[pc,#120] ; [0x800394c] = 0x20000050
        0x080038d2:    6008        .`      STR      r0,[r1,#0]
        0x080038d4:    4608        .F      MOV      r0,r1
        0x080038d6:    6800        .h      LDR      r0,[r0,#0]
        0x080038d8:    b108        ..      CBZ      r0,0x80038de ; vTaskStartScheduler + 58
        0x080038da:    2401        .$      MOVS     r4,#1
        0x080038dc:    e000        ..      B        0x80038e0 ; vTaskStartScheduler + 60
        0x080038de:    2400        .$      MOVS     r4,#0
        0x080038e0:    2c01        .,      CMP      r4,#1
        0x080038e2:    d102        ..      BNE      0x80038ea ; vTaskStartScheduler + 70
        0x080038e4:    f000fe72    ..r.    BL       xTimerCreateTimerTask ; 0x80045cc
        0x080038e8:    4604        .F      MOV      r4,r0
        0x080038ea:    2c01        .,      CMP      r4,#1
        0x080038ec:    d115        ..      BNE      0x800391a ; vTaskStartScheduler + 118
        0x080038ee:    bf00        ..      NOP      
        0x080038f0:    2050        P       MOVS     r0,#0x50
        0x080038f2:    f3808811    ....    MSR      BASEPRI,r0
        0x080038f6:    f3bf8f4f    ..O.    DSB      
        0x080038fa:    f3bf8f6f    ..o.    ISB      
        0x080038fe:    bf00        ..      NOP      
        0x08003900:    f04f30ff    O..0    MOV      r0,#0xffffffff
        0x08003904:    4912        .I      LDR      r1,[pc,#72] ; [0x8003950] = 0x2000004c
        0x08003906:    6008        .`      STR      r0,[r1,#0]
        0x08003908:    2001        .       MOVS     r0,#1
        0x0800390a:    4912        .I      LDR      r1,[pc,#72] ; [0x8003954] = 0x20000038
        0x0800390c:    6008        .`      STR      r0,[r1,#0]
        0x0800390e:    2000        .       MOVS     r0,#0
        0x08003910:    4911        .I      LDR      r1,[pc,#68] ; [0x8003958] = 0x20000030
        0x08003912:    6008        .`      STR      r0,[r1,#0]
        0x08003914:    f000f872    ..r.    BL       xPortStartScheduler ; 0x80039fc
        0x08003918:    e010        ..      B        0x800393c ; vTaskStartScheduler + 152
        0x0800391a:    1c60        `.      ADDS     r0,r4,#1
        0x0800391c:    b108        ..      CBZ      r0,0x8003922 ; vTaskStartScheduler + 126
        0x0800391e:    2001        .       MOVS     r0,#1
        0x08003920:    e000        ..      B        0x8003924 ; vTaskStartScheduler + 128
        0x08003922:    2000        .       MOVS     r0,#0
        0x08003924:    b950        P.      CBNZ     r0,0x800393c ; vTaskStartScheduler + 152
        0x08003926:    bf00        ..      NOP      
        0x08003928:    2050        P       MOVS     r0,#0x50
        0x0800392a:    f3808811    ....    MSR      BASEPRI,r0
        0x0800392e:    f3bf8f4f    ..O.    DSB      
        0x08003932:    f3bf8f6f    ..o.    ISB      
        0x08003936:    bf00        ..      NOP      
        0x08003938:    bf00        ..      NOP      
        0x0800393a:    e7fe        ..      B        0x800393a ; vTaskStartScheduler + 150
        0x0800393c:    b006        ..      ADD      sp,sp,#0x18
        0x0800393e:    bd10        ..      POP      {r4,pc}
    $d
        0x08003940:    454c4449    IDLE    DCD    1162626121
        0x08003944:    00000000    ....    DCD    0
        0x08003948:    08002b09    .+..    DCD    134228745
        0x0800394c:    20000050    P..     DCD    536870992
        0x08003950:    2000004c    L..     DCD    536870988
        0x08003954:    20000038    8..     DCD    536870968
        0x08003958:    20000030    0..     DCD    536870960
    $t
    i.vTaskSuspendAll
    vTaskSuspendAll
        0x0800395c:    4802        .H      LDR      r0,[pc,#8] ; [0x8003968] = 0x20000054
        0x0800395e:    6800        .h      LDR      r0,[r0,#0]
        0x08003960:    1c40        @.      ADDS     r0,r0,#1
        0x08003962:    4901        .I      LDR      r1,[pc,#4] ; [0x8003968] = 0x20000054
        0x08003964:    6008        .`      STR      r0,[r1,#0]
        0x08003966:    4770        pG      BX       lr
    $d
        0x08003968:    20000054    T..     DCD    536870996
    $t
    i.vTaskSwitchContext
    vTaskSwitchContext
        0x0800396c:    481e        .H      LDR      r0,[pc,#120] ; [0x80039e8] = 0x20000054
        0x0800396e:    6800        .h      LDR      r0,[r0,#0]
        0x08003970:    b118        ..      CBZ      r0,0x800397a ; vTaskSwitchContext + 14
        0x08003972:    2001        .       MOVS     r0,#1
        0x08003974:    491d        .I      LDR      r1,[pc,#116] ; [0x80039ec] = 0x20000040
        0x08003976:    6008        .`      STR      r0,[r1,#0]
        0x08003978:    e034        4.      B        0x80039e4 ; vTaskSwitchContext + 120
        0x0800397a:    2000        .       MOVS     r0,#0
        0x0800397c:    491b        .I      LDR      r1,[pc,#108] ; [0x80039ec] = 0x20000040
        0x0800397e:    6008        .`      STR      r0,[r1,#0]
        0x08003980:    481b        .H      LDR      r0,[pc,#108] ; [0x80039f0] = 0x20000034
        0x08003982:    6801        .h      LDR      r1,[r0,#0]
        0x08003984:    e00c        ..      B        0x80039a0 ; vTaskSwitchContext + 52
        0x08003986:    b951        Q.      CBNZ     r1,0x800399e ; vTaskSwitchContext + 50
        0x08003988:    bf00        ..      NOP      
        0x0800398a:    2050        P       MOVS     r0,#0x50
        0x0800398c:    f3808811    ....    MSR      BASEPRI,r0
        0x08003990:    f3bf8f4f    ..O.    DSB      
        0x08003994:    f3bf8f6f    ..o.    ISB      
        0x08003998:    bf00        ..      NOP      
        0x0800399a:    bf00        ..      NOP      
        0x0800399c:    e7fe        ..      B        0x800399c ; vTaskSwitchContext + 48
        0x0800399e:    1e49        I.      SUBS     r1,r1,#1
        0x080039a0:    eb010081    ....    ADD      r0,r1,r1,LSL #2
        0x080039a4:    4a13        .J      LDR      r2,[pc,#76] ; [0x80039f4] = 0x200005b0
        0x080039a6:    f8520020    R. .    LDR      r0,[r2,r0,LSL #2]
        0x080039aa:    b908        ..      CBNZ     r0,0x80039b0 ; vTaskSwitchContext + 68
        0x080039ac:    2001        .       MOVS     r0,#1
        0x080039ae:    e000        ..      B        0x80039b2 ; vTaskSwitchContext + 70
        0x080039b0:    2000        .       MOVS     r0,#0
        0x080039b2:    2800        .(      CMP      r0,#0
        0x080039b4:    d1e7        ..      BNE      0x8003986 ; vTaskSwitchContext + 26
        0x080039b6:    eb010281    ....    ADD      r2,r1,r1,LSL #2
        0x080039ba:    4b0e        .K      LDR      r3,[pc,#56] ; [0x80039f4] = 0x200005b0
        0x080039bc:    eb030082    ....    ADD      r0,r3,r2,LSL #2
        0x080039c0:    6842        Bh      LDR      r2,[r0,#4]
        0x080039c2:    6852        Rh      LDR      r2,[r2,#4]
        0x080039c4:    6042        B`      STR      r2,[r0,#4]
        0x080039c6:    f1000208    ....    ADD      r2,r0,#8
        0x080039ca:    6843        Ch      LDR      r3,[r0,#4]
        0x080039cc:    4293        .B      CMP      r3,r2
        0x080039ce:    d102        ..      BNE      0x80039d6 ; vTaskSwitchContext + 106
        0x080039d0:    6842        Bh      LDR      r2,[r0,#4]
        0x080039d2:    6852        Rh      LDR      r2,[r2,#4]
        0x080039d4:    6042        B`      STR      r2,[r0,#4]
        0x080039d6:    6842        Bh      LDR      r2,[r0,#4]
        0x080039d8:    68d2        .h      LDR      r2,[r2,#0xc]
        0x080039da:    4b07        .K      LDR      r3,[pc,#28] ; [0x80039f8] = 0x2000001c
        0x080039dc:    601a        .`      STR      r2,[r3,#0]
        0x080039de:    4804        .H      LDR      r0,[pc,#16] ; [0x80039f0] = 0x20000034
        0x080039e0:    6001        .`      STR      r1,[r0,#0]
        0x080039e2:    bf00        ..      NOP      
        0x080039e4:    4770        pG      BX       lr
    $d
        0x080039e6:    0000        ..      DCW    0
        0x080039e8:    20000054    T..     DCD    536870996
        0x080039ec:    20000040    @..     DCD    536870976
        0x080039f0:    20000034    4..     DCD    536870964
        0x080039f4:    200005b0    ...     DCD    536872368
        0x080039f8:    2000001c    ...     DCD    536870940
    $t
    i.xPortStartScheduler
    xPortStartScheduler
        0x080039fc:    b51c        ..      PUSH     {r2-r4,lr}
        0x080039fe:    4938        8I      LDR      r1,[pc,#224] ; [0x8003ae0] = 0xe000e400
        0x08003a00:    4608        .F      MOV      r0,r1
        0x08003a02:    7800        .x      LDRB     r0,[r0,#0]
        0x08003a04:    9001        ..      STR      r0,[sp,#4]
        0x08003a06:    20ff        .       MOVS     r0,#0xff
        0x08003a08:    460a        .F      MOV      r2,r1
        0x08003a0a:    7010        .p      STRB     r0,[r2,#0]
        0x08003a0c:    4608        .F      MOV      r0,r1
        0x08003a0e:    7800        .x      LDRB     r0,[r0,#0]
        0x08003a10:    9000        ..      STR      r0,[sp,#0]
        0x08003a12:    f89d0000    ....    LDRB     r0,[sp,#0]
        0x08003a16:    f00000f0    ....    AND      r0,r0,#0xf0
        0x08003a1a:    f89d2000    ...     LDRB     r2,[sp,#0]
        0x08003a1e:    4290        .B      CMP      r0,r2
        0x08003a20:    d101        ..      BNE      0x8003a26 ; xPortStartScheduler + 42
        0x08003a22:    2001        .       MOVS     r0,#1
        0x08003a24:    e000        ..      B        0x8003a28 ; xPortStartScheduler + 44
        0x08003a26:    2000        .       MOVS     r0,#0
        0x08003a28:    b950        P.      CBNZ     r0,0x8003a40 ; xPortStartScheduler + 68
        0x08003a2a:    bf00        ..      NOP      
        0x08003a2c:    2050        P       MOVS     r0,#0x50
        0x08003a2e:    f3808811    ....    MSR      BASEPRI,r0
        0x08003a32:    f3bf8f4f    ..O.    DSB      
        0x08003a36:    f3bf8f6f    ..o.    ISB      
        0x08003a3a:    bf00        ..      NOP      
        0x08003a3c:    bf00        ..      NOP      
        0x08003a3e:    e7fe        ..      B        0x8003a3e ; xPortStartScheduler + 66
        0x08003a40:    f89d0000    ....    LDRB     r0,[sp,#0]
        0x08003a44:    f0000050    ..P.    AND      r0,r0,#0x50
        0x08003a48:    4a26        &J      LDR      r2,[pc,#152] ; [0x8003ae4] = 0x2000008c
        0x08003a4a:    7010        .p      STRB     r0,[r2,#0]
        0x08003a4c:    2007        .       MOVS     r0,#7
        0x08003a4e:    4a26        &J      LDR      r2,[pc,#152] ; [0x8003ae8] = 0x20000090
        0x08003a50:    6010        .`      STR      r0,[r2,#0]
        0x08003a52:    e009        ..      B        0x8003a68 ; xPortStartScheduler + 108
        0x08003a54:    4824        $H      LDR      r0,[pc,#144] ; [0x8003ae8] = 0x20000090
        0x08003a56:    6800        .h      LDR      r0,[r0,#0]
        0x08003a58:    1e40        @.      SUBS     r0,r0,#1
        0x08003a5a:    4a23        #J      LDR      r2,[pc,#140] ; [0x8003ae8] = 0x20000090
        0x08003a5c:    6010        .`      STR      r0,[r2,#0]
        0x08003a5e:    f89d0000    ....    LDRB     r0,[sp,#0]
        0x08003a62:    0640        @.      LSLS     r0,r0,#25
        0x08003a64:    0e00        ..      LSRS     r0,r0,#24
        0x08003a66:    9000        ..      STR      r0,[sp,#0]
        0x08003a68:    f89d0000    ....    LDRB     r0,[sp,#0]
        0x08003a6c:    f0000080    ....    AND      r0,r0,#0x80
        0x08003a70:    2880        .(      CMP      r0,#0x80
        0x08003a72:    d0ef        ..      BEQ      0x8003a54 ; xPortStartScheduler + 88
        0x08003a74:    481c        .H      LDR      r0,[pc,#112] ; [0x8003ae8] = 0x20000090
        0x08003a76:    6800        .h      LDR      r0,[r0,#0]
        0x08003a78:    f1c00007    ....    RSB      r0,r0,#7
        0x08003a7c:    2804        .(      CMP      r0,#4
        0x08003a7e:    d101        ..      BNE      0x8003a84 ; xPortStartScheduler + 136
        0x08003a80:    2001        .       MOVS     r0,#1
        0x08003a82:    e000        ..      B        0x8003a86 ; xPortStartScheduler + 138
        0x08003a84:    2000        .       MOVS     r0,#0
        0x08003a86:    b950        P.      CBNZ     r0,0x8003a9e ; xPortStartScheduler + 162
        0x08003a88:    bf00        ..      NOP      
        0x08003a8a:    2050        P       MOVS     r0,#0x50
        0x08003a8c:    f3808811    ....    MSR      BASEPRI,r0
        0x08003a90:    f3bf8f4f    ..O.    DSB      
        0x08003a94:    f3bf8f6f    ..o.    ISB      
        0x08003a98:    bf00        ..      NOP      
        0x08003a9a:    bf00        ..      NOP      
        0x08003a9c:    e7fe        ..      B        0x8003a9c ; xPortStartScheduler + 160
        0x08003a9e:    4812        .H      LDR      r0,[pc,#72] ; [0x8003ae8] = 0x20000090
        0x08003aa0:    6800        .h      LDR      r0,[r0,#0]
        0x08003aa2:    0200        ..      LSLS     r0,r0,#8
        0x08003aa4:    4a10        .J      LDR      r2,[pc,#64] ; [0x8003ae8] = 0x20000090
        0x08003aa6:    6010        .`      STR      r0,[r2,#0]
        0x08003aa8:    4610        .F      MOV      r0,r2
        0x08003aaa:    8800        ..      LDRH     r0,[r0,#0]
        0x08003aac:    f40060e0    ...`    AND      r0,r0,#0x700
        0x08003ab0:    6010        .`      STR      r0,[r2,#0]
        0x08003ab2:    4a0b        .J      LDR      r2,[pc,#44] ; [0x8003ae0] = 0xe000e400
        0x08003ab4:    9801        ..      LDR      r0,[sp,#4]
        0x08003ab6:    7010        .p      STRB     r0,[r2,#0]
        0x08003ab8:    480c        .H      LDR      r0,[pc,#48] ; [0x8003aec] = 0xe000ed20
        0x08003aba:    6800        .h      LDR      r0,[r0,#0]
        0x08003abc:    f4400070    @.p.    ORR      r0,r0,#0xf00000
        0x08003ac0:    490a        .I      LDR      r1,[pc,#40] ; [0x8003aec] = 0xe000ed20
        0x08003ac2:    6008        .`      STR      r0,[r1,#0]
        0x08003ac4:    4608        .F      MOV      r0,r1
        0x08003ac6:    6800        .h      LDR      r0,[r0,#0]
        0x08003ac8:    f0404070    @.p@    ORR      r0,r0,#0xf0000000
        0x08003acc:    6008        .`      STR      r0,[r1,#0]
        0x08003ace:    f7fffde1    ....    BL       vPortSetupTimerInterrupt ; 0x8003694
        0x08003ad2:    2000        .       MOVS     r0,#0
        0x08003ad4:    4906        .I      LDR      r1,[pc,#24] ; [0x8003af0] = 0x20000088
        0x08003ad6:    6008        .`      STR      r0,[r1,#0]
        0x08003ad8:    f7fcfb48    ..H.    BL       __asm___6_port_c_39a90d8d__prvStartFirstTask ; 0x800016c
        0x08003adc:    2000        .       MOVS     r0,#0
        0x08003ade:    bd1c        ..      POP      {r2-r4,pc}
    $d
        0x08003ae0:    e000e400    ....    DCD    3758154752
        0x08003ae4:    2000008c    ...     DCD    536871052
        0x08003ae8:    20000090    ...     DCD    536871056
        0x08003aec:    e000ed20     ...    DCD    3758157088
        0x08003af0:    20000088    ...     DCD    536871048
    $t
    i.xQueueGenericCreateStatic
    xQueueGenericCreateStatic
        0x08003af4:    e92d43f8    -..C    PUSH     {r3-r9,lr}
        0x08003af8:    4680        .F      MOV      r8,r0
        0x08003afa:    460e        .F      MOV      r6,r1
        0x08003afc:    4617        .F      MOV      r7,r2
        0x08003afe:    461d        .F      MOV      r5,r3
        0x08003b00:    f8dd9020    .. .    LDR      r9,[sp,#0x20]
        0x08003b04:    f1b80f00    ....    CMP      r8,#0
        0x08003b08:    d001        ..      BEQ      0x8003b0e ; xQueueGenericCreateStatic + 26
        0x08003b0a:    2001        .       MOVS     r0,#1
        0x08003b0c:    e000        ..      B        0x8003b10 ; xQueueGenericCreateStatic + 28
        0x08003b0e:    2000        .       MOVS     r0,#0
        0x08003b10:    b950        P.      CBNZ     r0,0x8003b28 ; xQueueGenericCreateStatic + 52
        0x08003b12:    bf00        ..      NOP      
        0x08003b14:    2050        P       MOVS     r0,#0x50
        0x08003b16:    f3808811    ....    MSR      BASEPRI,r0
        0x08003b1a:    f3bf8f4f    ..O.    DSB      
        0x08003b1e:    f3bf8f6f    ..o.    ISB      
        0x08003b22:    bf00        ..      NOP      
        0x08003b24:    bf00        ..      NOP      
        0x08003b26:    e7fe        ..      B        0x8003b26 ; xQueueGenericCreateStatic + 50
        0x08003b28:    b10d        ..      CBZ      r5,0x8003b2e ; xQueueGenericCreateStatic + 58
        0x08003b2a:    2001        .       MOVS     r0,#1
        0x08003b2c:    e000        ..      B        0x8003b30 ; xQueueGenericCreateStatic + 60
        0x08003b2e:    2000        .       MOVS     r0,#0
        0x08003b30:    b950        P.      CBNZ     r0,0x8003b48 ; xQueueGenericCreateStatic + 84
        0x08003b32:    bf00        ..      NOP      
        0x08003b34:    2050        P       MOVS     r0,#0x50
        0x08003b36:    f3808811    ....    MSR      BASEPRI,r0
        0x08003b3a:    f3bf8f4f    ..O.    DSB      
        0x08003b3e:    f3bf8f6f    ..o.    ISB      
        0x08003b42:    bf00        ..      NOP      
        0x08003b44:    bf00        ..      NOP      
        0x08003b46:    e7fe        ..      B        0x8003b46 ; xQueueGenericCreateStatic + 82
        0x08003b48:    b107        ..      CBZ      r7,0x8003b4c ; xQueueGenericCreateStatic + 88
        0x08003b4a:    b10e        ..      CBZ      r6,0x8003b50 ; xQueueGenericCreateStatic + 92
        0x08003b4c:    2001        .       MOVS     r0,#1
        0x08003b4e:    e000        ..      B        0x8003b52 ; xQueueGenericCreateStatic + 94
        0x08003b50:    2000        .       MOVS     r0,#0
        0x08003b52:    b950        P.      CBNZ     r0,0x8003b6a ; xQueueGenericCreateStatic + 118
        0x08003b54:    bf00        ..      NOP      
        0x08003b56:    2050        P       MOVS     r0,#0x50
        0x08003b58:    f3808811    ....    MSR      BASEPRI,r0
        0x08003b5c:    f3bf8f4f    ..O.    DSB      
        0x08003b60:    f3bf8f6f    ..o.    ISB      
        0x08003b64:    bf00        ..      NOP      
        0x08003b66:    bf00        ..      NOP      
        0x08003b68:    e7fe        ..      B        0x8003b68 ; xQueueGenericCreateStatic + 116
        0x08003b6a:    b907        ..      CBNZ     r7,0x8003b6e ; xQueueGenericCreateStatic + 122
        0x08003b6c:    b90e        ..      CBNZ     r6,0x8003b72 ; xQueueGenericCreateStatic + 126
        0x08003b6e:    2001        .       MOVS     r0,#1
        0x08003b70:    e000        ..      B        0x8003b74 ; xQueueGenericCreateStatic + 128
        0x08003b72:    2000        .       MOVS     r0,#0
        0x08003b74:    b950        P.      CBNZ     r0,0x8003b8c ; xQueueGenericCreateStatic + 152
        0x08003b76:    bf00        ..      NOP      
        0x08003b78:    2050        P       MOVS     r0,#0x50
        0x08003b7a:    f3808811    ....    MSR      BASEPRI,r0
        0x08003b7e:    f3bf8f4f    ..O.    DSB      
        0x08003b82:    f3bf8f6f    ..o.    ISB      
        0x08003b86:    bf00        ..      NOP      
        0x08003b88:    bf00        ..      NOP      
        0x08003b8a:    e7fe        ..      B        0x8003b8a ; xQueueGenericCreateStatic + 150
        0x08003b8c:    2050        P       MOVS     r0,#0x50
        0x08003b8e:    9000        ..      STR      r0,[sp,#0]
        0x08003b90:    9800        ..      LDR      r0,[sp,#0]
        0x08003b92:    2850        P(      CMP      r0,#0x50
        0x08003b94:    d101        ..      BNE      0x8003b9a ; xQueueGenericCreateStatic + 166
        0x08003b96:    2001        .       MOVS     r0,#1
        0x08003b98:    e000        ..      B        0x8003b9c ; xQueueGenericCreateStatic + 168
        0x08003b9a:    2000        .       MOVS     r0,#0
        0x08003b9c:    b950        P.      CBNZ     r0,0x8003bb4 ; xQueueGenericCreateStatic + 192
        0x08003b9e:    bf00        ..      NOP      
        0x08003ba0:    2050        P       MOVS     r0,#0x50
        0x08003ba2:    f3808811    ....    MSR      BASEPRI,r0
        0x08003ba6:    f3bf8f4f    ..O.    DSB      
        0x08003baa:    f3bf8f6f    ..o.    ISB      
        0x08003bae:    bf00        ..      NOP      
        0x08003bb0:    bf00        ..      NOP      
        0x08003bb2:    e7fe        ..      B        0x8003bb2 ; xQueueGenericCreateStatic + 190
        0x08003bb4:    462c        ,F      MOV      r4,r5
        0x08003bb6:    b14c        L.      CBZ      r4,0x8003bcc ; xQueueGenericCreateStatic + 216
        0x08003bb8:    2001        .       MOVS     r0,#1
        0x08003bba:    f8840046    ..F.    STRB     r0,[r4,#0x46]
        0x08003bbe:    464b        KF      MOV      r3,r9
        0x08003bc0:    463a        :F      MOV      r2,r7
        0x08003bc2:    4631        1F      MOV      r1,r6
        0x08003bc4:    4640        @F      MOV      r0,r8
        0x08003bc6:    9400        ..      STR      r4,[sp,#0]
        0x08003bc8:    f7feffb2    ....    BL       prvInitialiseNewQueue ; 0x8002b30
        0x08003bcc:    4620         F      MOV      r0,r4
        0x08003bce:    e8bd83f8    ....    POP      {r3-r9,pc}
        0x08003bd2:    0000        ..      MOVS     r0,r0
    i.xQueueGenericReset
    xQueueGenericReset
        0x08003bd4:    b570        p.      PUSH     {r4-r6,lr}
        0x08003bd6:    4605        .F      MOV      r5,r0
        0x08003bd8:    460e        .F      MOV      r6,r1
        0x08003bda:    462c        ,F      MOV      r4,r5
        0x08003bdc:    b954        T.      CBNZ     r4,0x8003bf4 ; xQueueGenericReset + 32
        0x08003bde:    bf00        ..      NOP      
        0x08003be0:    2050        P       MOVS     r0,#0x50
        0x08003be2:    f3808811    ....    MSR      BASEPRI,r0
        0x08003be6:    f3bf8f4f    ..O.    DSB      
        0x08003bea:    f3bf8f6f    ..o.    ISB      
        0x08003bee:    bf00        ..      NOP      
        0x08003bf0:    bf00        ..      NOP      
        0x08003bf2:    e7fe        ..      B        0x8003bf2 ; xQueueGenericReset + 30
        0x08003bf4:    f7fffcbc    ....    BL       vPortEnterCritical ; 0x8003570
        0x08003bf8:    e9d4120f    ....    LDRD     r1,r2,[r4,#0x3c]
        0x08003bfc:    6820         h      LDR      r0,[r4,#0]
        0x08003bfe:    fb010002    ....    MLA      r0,r1,r2,r0
        0x08003c02:    6060        ``      STR      r0,[r4,#4]
        0x08003c04:    2000        .       MOVS     r0,#0
        0x08003c06:    63a0        .c      STR      r0,[r4,#0x38]
        0x08003c08:    6820         h      LDR      r0,[r4,#0]
        0x08003c0a:    60a0        .`      STR      r0,[r4,#8]
        0x08003c0c:    6be0        .k      LDR      r0,[r4,#0x3c]
        0x08003c0e:    1e40        @.      SUBS     r0,r0,#1
        0x08003c10:    6c22        "l      LDR      r2,[r4,#0x40]
        0x08003c12:    6821        !h      LDR      r1,[r4,#0]
        0x08003c14:    fb001002    ....    MLA      r0,r0,r2,r1
        0x08003c18:    60e0        .`      STR      r0,[r4,#0xc]
        0x08003c1a:    20ff        .       MOVS     r0,#0xff
        0x08003c1c:    f8840044    ..D.    STRB     r0,[r4,#0x44]
        0x08003c20:    f8840045    ..E.    STRB     r0,[r4,#0x45]
        0x08003c24:    b99e        ..      CBNZ     r6,0x8003c4e ; xQueueGenericReset + 122
        0x08003c26:    6920         i      LDR      r0,[r4,#0x10]
        0x08003c28:    b908        ..      CBNZ     r0,0x8003c2e ; xQueueGenericReset + 90
        0x08003c2a:    2001        .       MOVS     r0,#1
        0x08003c2c:    e000        ..      B        0x8003c30 ; xQueueGenericReset + 92
        0x08003c2e:    2000        .       MOVS     r0,#0
        0x08003c30:    b9a8        ..      CBNZ     r0,0x8003c5e ; xQueueGenericReset + 138
        0x08003c32:    f1040010    ....    ADD      r0,r4,#0x10
        0x08003c36:    f000fbfb    ....    BL       xTaskRemoveFromEventList ; 0x8004430
        0x08003c3a:    b180        ..      CBZ      r0,0x8003c5e ; xQueueGenericReset + 138
        0x08003c3c:    f04f5080    O..P    MOV      r0,#0x10000000
        0x08003c40:    4909        .I      LDR      r1,[pc,#36] ; [0x8003c68] = 0xe000ed04
        0x08003c42:    6008        .`      STR      r0,[r1,#0]
        0x08003c44:    f3bf8f4f    ..O.    DSB      
        0x08003c48:    f3bf8f6f    ..o.    ISB      
        0x08003c4c:    e007        ..      B        0x8003c5e ; xQueueGenericReset + 138
        0x08003c4e:    f1040010    ....    ADD      r0,r4,#0x10
        0x08003c52:    f7fffc57    ..W.    BL       vListInitialise ; 0x8003504
        0x08003c56:    f1040024    ..$.    ADD      r0,r4,#0x24
        0x08003c5a:    f7fffc53    ..S.    BL       vListInitialise ; 0x8003504
        0x08003c5e:    f7fffcb1    ....    BL       vPortExitCritical ; 0x80035c4
        0x08003c62:    2001        .       MOVS     r0,#1
        0x08003c64:    bd70        p.      POP      {r4-r6,pc}
    $d
        0x08003c66:    0000        ..      DCW    0
        0x08003c68:    e000ed04    ....    DCD    3758157060
    $t
    i.xQueueGenericSend
    xQueueGenericSend
        0x08003c6c:    e92d43ff    -..C    PUSH     {r0-r9,lr}
        0x08003c70:    b083        ..      SUB      sp,sp,#0xc
        0x08003c72:    4606        .F      MOV      r6,r0
        0x08003c74:    4688        .F      MOV      r8,r1
        0x08003c76:    461d        .F      MOV      r5,r3
        0x08003c78:    f04f0900    O...    MOV      r9,#0
        0x08003c7c:    4634        4F      MOV      r4,r6
        0x08003c7e:    b954        T.      CBNZ     r4,0x8003c96 ; xQueueGenericSend + 42
        0x08003c80:    bf00        ..      NOP      
        0x08003c82:    2050        P       MOVS     r0,#0x50
        0x08003c84:    f3808811    ....    MSR      BASEPRI,r0
        0x08003c88:    f3bf8f4f    ..O.    DSB      
        0x08003c8c:    f3bf8f6f    ..o.    ISB      
        0x08003c90:    bf00        ..      NOP      
        0x08003c92:    bf00        ..      NOP      
        0x08003c94:    e7fe        ..      B        0x8003c94 ; xQueueGenericSend + 40
        0x08003c96:    f1b80f00    ....    CMP      r8,#0
        0x08003c9a:    d101        ..      BNE      0x8003ca0 ; xQueueGenericSend + 52
        0x08003c9c:    6c20         l      LDR      r0,[r4,#0x40]
        0x08003c9e:    b908        ..      CBNZ     r0,0x8003ca4 ; xQueueGenericSend + 56
        0x08003ca0:    2001        .       MOVS     r0,#1
        0x08003ca2:    e000        ..      B        0x8003ca6 ; xQueueGenericSend + 58
        0x08003ca4:    2000        .       MOVS     r0,#0
        0x08003ca6:    b950        P.      CBNZ     r0,0x8003cbe ; xQueueGenericSend + 82
        0x08003ca8:    bf00        ..      NOP      
        0x08003caa:    2050        P       MOVS     r0,#0x50
        0x08003cac:    f3808811    ....    MSR      BASEPRI,r0
        0x08003cb0:    f3bf8f4f    ..O.    DSB      
        0x08003cb4:    f3bf8f6f    ..o.    ISB      
        0x08003cb8:    bf00        ..      NOP      
        0x08003cba:    bf00        ..      NOP      
        0x08003cbc:    e7fe        ..      B        0x8003cbc ; xQueueGenericSend + 80
        0x08003cbe:    2d02        .-      CMP      r5,#2
        0x08003cc0:    d102        ..      BNE      0x8003cc8 ; xQueueGenericSend + 92
        0x08003cc2:    6be0        .k      LDR      r0,[r4,#0x3c]
        0x08003cc4:    2801        .(      CMP      r0,#1
        0x08003cc6:    d101        ..      BNE      0x8003ccc ; xQueueGenericSend + 96
        0x08003cc8:    2001        .       MOVS     r0,#1
        0x08003cca:    e000        ..      B        0x8003cce ; xQueueGenericSend + 98
        0x08003ccc:    2000        .       MOVS     r0,#0
        0x08003cce:    b950        P.      CBNZ     r0,0x8003ce6 ; xQueueGenericSend + 122
        0x08003cd0:    bf00        ..      NOP      
        0x08003cd2:    2050        P       MOVS     r0,#0x50
        0x08003cd4:    f3808811    ....    MSR      BASEPRI,r0
        0x08003cd8:    f3bf8f4f    ..O.    DSB      
        0x08003cdc:    f3bf8f6f    ..o.    ISB      
        0x08003ce0:    bf00        ..      NOP      
        0x08003ce2:    bf00        ..      NOP      
        0x08003ce4:    e7fe        ..      B        0x8003ce4 ; xQueueGenericSend + 120
        0x08003ce6:    f000fa99    ....    BL       xTaskGetSchedulerState ; 0x800421c
        0x08003cea:    b908        ..      CBNZ     r0,0x8003cf0 ; xQueueGenericSend + 132
        0x08003cec:    9805        ..      LDR      r0,[sp,#0x14]
        0x08003cee:    b908        ..      CBNZ     r0,0x8003cf4 ; xQueueGenericSend + 136
        0x08003cf0:    2001        .       MOVS     r0,#1
        0x08003cf2:    e000        ..      B        0x8003cf6 ; xQueueGenericSend + 138
        0x08003cf4:    2000        .       MOVS     r0,#0
        0x08003cf6:    b950        P.      CBNZ     r0,0x8003d0e ; xQueueGenericSend + 162
        0x08003cf8:    bf00        ..      NOP      
        0x08003cfa:    2050        P       MOVS     r0,#0x50
        0x08003cfc:    f3808811    ....    MSR      BASEPRI,r0
        0x08003d00:    f3bf8f4f    ..O.    DSB      
        0x08003d04:    f3bf8f6f    ..o.    ISB      
        0x08003d08:    bf00        ..      NOP      
        0x08003d0a:    bf00        ..      NOP      
        0x08003d0c:    e7fe        ..      B        0x8003d0c ; xQueueGenericSend + 160
        0x08003d0e:    bf00        ..      NOP      
        0x08003d10:    f7fffc2e    ....    BL       vPortEnterCritical ; 0x8003570
        0x08003d14:    6ba0        .k      LDR      r0,[r4,#0x38]
        0x08003d16:    6be1        .k      LDR      r1,[r4,#0x3c]
        0x08003d18:    4288        .B      CMP      r0,r1
        0x08003d1a:    d301        ..      BCC      0x8003d20 ; xQueueGenericSend + 180
        0x08003d1c:    2d02        .-      CMP      r5,#2
        0x08003d1e:    d128        (.      BNE      0x8003d72 ; xQueueGenericSend + 262
        0x08003d20:    462a        *F      MOV      r2,r5
        0x08003d22:    4641        AF      MOV      r1,r8
        0x08003d24:    4620         F      MOV      r0,r4
        0x08003d26:    f7fefe36    ..6.    BL       prvCopyDataToQueue ; 0x8002996
        0x08003d2a:    4607        .F      MOV      r7,r0
        0x08003d2c:    6a60        `j      LDR      r0,[r4,#0x24]
        0x08003d2e:    b908        ..      CBNZ     r0,0x8003d34 ; xQueueGenericSend + 200
        0x08003d30:    2001        .       MOVS     r0,#1
        0x08003d32:    e000        ..      B        0x8003d36 ; xQueueGenericSend + 202
        0x08003d34:    2000        .       MOVS     r0,#0
        0x08003d36:    b968        h.      CBNZ     r0,0x8003d54 ; xQueueGenericSend + 232
        0x08003d38:    f1040024    ..$.    ADD      r0,r4,#0x24
        0x08003d3c:    f000fb78    ..x.    BL       xTaskRemoveFromEventList ; 0x8004430
        0x08003d40:    b188        ..      CBZ      r0,0x8003d66 ; xQueueGenericSend + 250
        0x08003d42:    f04f5080    O..P    MOV      r0,#0x10000000
        0x08003d46:    4932        2I      LDR      r1,[pc,#200] ; [0x8003e10] = 0xe000ed04
        0x08003d48:    6008        .`      STR      r0,[r1,#0]
        0x08003d4a:    f3bf8f4f    ..O.    DSB      
        0x08003d4e:    f3bf8f6f    ..o.    ISB      
        0x08003d52:    e008        ..      B        0x8003d66 ; xQueueGenericSend + 250
        0x08003d54:    b13f        ?.      CBZ      r7,0x8003d66 ; xQueueGenericSend + 250
        0x08003d56:    f04f5080    O..P    MOV      r0,#0x10000000
        0x08003d5a:    492d        -I      LDR      r1,[pc,#180] ; [0x8003e10] = 0xe000ed04
        0x08003d5c:    6008        .`      STR      r0,[r1,#0]
        0x08003d5e:    f3bf8f4f    ..O.    DSB      
        0x08003d62:    f3bf8f6f    ..o.    ISB      
        0x08003d66:    f7fffc2d    ..-.    BL       vPortExitCritical ; 0x80035c4
        0x08003d6a:    2001        .       MOVS     r0,#1
        0x08003d6c:    b007        ..      ADD      sp,sp,#0x1c
        0x08003d6e:    e8bd83f0    ....    POP      {r4-r9,pc}
        0x08003d72:    9805        ..      LDR      r0,[sp,#0x14]
        0x08003d74:    b918        ..      CBNZ     r0,0x8003d7e ; xQueueGenericSend + 274
        0x08003d76:    f7fffc25    ..%.    BL       vPortExitCritical ; 0x80035c4
        0x08003d7a:    2000        .       MOVS     r0,#0
        0x08003d7c:    e7f6        ..      B        0x8003d6c ; xQueueGenericSend + 256
        0x08003d7e:    f1b90f00    ....    CMP      r9,#0
        0x08003d82:    d104        ..      BNE      0x8003d8e ; xQueueGenericSend + 290
        0x08003d84:    a801        ..      ADD      r0,sp,#4
        0x08003d86:    f7fffd3f    ..?.    BL       vTaskInternalSetTimeOutState ; 0x8003808
        0x08003d8a:    f04f0901    O...    MOV      r9,#1
        0x08003d8e:    f7fffc19    ....    BL       vPortExitCritical ; 0x80035c4
        0x08003d92:    f7fffde3    ....    BL       vTaskSuspendAll ; 0x800395c
        0x08003d96:    f7fffbeb    ....    BL       vPortEnterCritical ; 0x8003570
        0x08003d9a:    f9940044    ..D.    LDRSB    r0,[r4,#0x44]
        0x08003d9e:    1c40        @.      ADDS     r0,r0,#1
        0x08003da0:    b910        ..      CBNZ     r0,0x8003da8 ; xQueueGenericSend + 316
        0x08003da2:    2000        .       MOVS     r0,#0
        0x08003da4:    f8840044    ..D.    STRB     r0,[r4,#0x44]
        0x08003da8:    f9940045    ..E.    LDRSB    r0,[r4,#0x45]
        0x08003dac:    1c40        @.      ADDS     r0,r0,#1
        0x08003dae:    b910        ..      CBNZ     r0,0x8003db6 ; xQueueGenericSend + 330
        0x08003db0:    2000        .       MOVS     r0,#0
        0x08003db2:    f8840045    ..E.    STRB     r0,[r4,#0x45]
        0x08003db6:    f7fffc05    ....    BL       vPortExitCritical ; 0x80035c4
        0x08003dba:    a905        ..      ADD      r1,sp,#0x14
        0x08003dbc:    a801        ..      ADD      r0,sp,#4
        0x08003dbe:    f000f959    ..Y.    BL       xTaskCheckForTimeOut ; 0x8004074
        0x08003dc2:    b9f0        ..      CBNZ     r0,0x8003e02 ; xQueueGenericSend + 406
        0x08003dc4:    4620         F      MOV      r0,r4
        0x08003dc6:    f7feffc4    ....    BL       prvIsQueueFull ; 0x8002d52
        0x08003dca:    b1a0        ..      CBZ      r0,0x8003df6 ; xQueueGenericSend + 394
        0x08003dcc:    f1040010    ....    ADD      r0,r4,#0x10
        0x08003dd0:    9905        ..      LDR      r1,[sp,#0x14]
        0x08003dd2:    f7fffd2b    ..+.    BL       vTaskPlaceOnEventList ; 0x800382c
        0x08003dd6:    4620         F      MOV      r0,r4
        0x08003dd8:    f7fff977    ..w.    BL       prvUnlockQueue ; 0x80030ca
        0x08003ddc:    f000fb74    ..t.    BL       xTaskResumeAll ; 0x80044c8
        0x08003de0:    2800        .(      CMP      r0,#0
        0x08003de2:    d195        ..      BNE      0x8003d10 ; xQueueGenericSend + 164
        0x08003de4:    f04f5080    O..P    MOV      r0,#0x10000000
        0x08003de8:    4909        .I      LDR      r1,[pc,#36] ; [0x8003e10] = 0xe000ed04
        0x08003dea:    6008        .`      STR      r0,[r1,#0]
        0x08003dec:    f3bf8f4f    ..O.    DSB      
        0x08003df0:    f3bf8f6f    ..o.    ISB      
        0x08003df4:    e78c        ..      B        0x8003d10 ; xQueueGenericSend + 164
        0x08003df6:    4620         F      MOV      r0,r4
        0x08003df8:    f7fff967    ..g.    BL       prvUnlockQueue ; 0x80030ca
        0x08003dfc:    f000fb64    ..d.    BL       xTaskResumeAll ; 0x80044c8
        0x08003e00:    e786        ..      B        0x8003d10 ; xQueueGenericSend + 164
        0x08003e02:    4620         F      MOV      r0,r4
        0x08003e04:    f7fff961    ..a.    BL       prvUnlockQueue ; 0x80030ca
        0x08003e08:    f000fb5e    ..^.    BL       xTaskResumeAll ; 0x80044c8
        0x08003e0c:    2000        .       MOVS     r0,#0
        0x08003e0e:    e7ad        ..      B        0x8003d6c ; xQueueGenericSend + 256
    $d
        0x08003e10:    e000ed04    ....    DCD    3758157060
    $t
    i.xQueueGenericSendFromISR
    xQueueGenericSendFromISR
        0x08003e14:    e92d5ff0    -.._    PUSH     {r4-r12,lr}
        0x08003e18:    4607        .F      MOV      r7,r0
        0x08003e1a:    468a        .F      MOV      r10,r1
        0x08003e1c:    4690        .F      MOV      r8,r2
        0x08003e1e:    461e        .F      MOV      r6,r3
        0x08003e20:    463c        <F      MOV      r4,r7
        0x08003e22:    b954        T.      CBNZ     r4,0x8003e3a ; xQueueGenericSendFromISR + 38
        0x08003e24:    bf00        ..      NOP      
        0x08003e26:    2050        P       MOVS     r0,#0x50
        0x08003e28:    f3808811    ....    MSR      BASEPRI,r0
        0x08003e2c:    f3bf8f4f    ..O.    DSB      
        0x08003e30:    f3bf8f6f    ..o.    ISB      
        0x08003e34:    bf00        ..      NOP      
        0x08003e36:    bf00        ..      NOP      
        0x08003e38:    e7fe        ..      B        0x8003e38 ; xQueueGenericSendFromISR + 36
        0x08003e3a:    f1ba0f00    ....    CMP      r10,#0
        0x08003e3e:    d101        ..      BNE      0x8003e44 ; xQueueGenericSendFromISR + 48
        0x08003e40:    6c20         l      LDR      r0,[r4,#0x40]
        0x08003e42:    b908        ..      CBNZ     r0,0x8003e48 ; xQueueGenericSendFromISR + 52
        0x08003e44:    2001        .       MOVS     r0,#1
        0x08003e46:    e000        ..      B        0x8003e4a ; xQueueGenericSendFromISR + 54
        0x08003e48:    2000        .       MOVS     r0,#0
        0x08003e4a:    b950        P.      CBNZ     r0,0x8003e62 ; xQueueGenericSendFromISR + 78
        0x08003e4c:    bf00        ..      NOP      
        0x08003e4e:    2050        P       MOVS     r0,#0x50
        0x08003e50:    f3808811    ....    MSR      BASEPRI,r0
        0x08003e54:    f3bf8f4f    ..O.    DSB      
        0x08003e58:    f3bf8f6f    ..o.    ISB      
        0x08003e5c:    bf00        ..      NOP      
        0x08003e5e:    bf00        ..      NOP      
        0x08003e60:    e7fe        ..      B        0x8003e60 ; xQueueGenericSendFromISR + 76
        0x08003e62:    2e02        ..      CMP      r6,#2
        0x08003e64:    d102        ..      BNE      0x8003e6c ; xQueueGenericSendFromISR + 88
        0x08003e66:    6be0        .k      LDR      r0,[r4,#0x3c]
        0x08003e68:    2801        .(      CMP      r0,#1
        0x08003e6a:    d101        ..      BNE      0x8003e70 ; xQueueGenericSendFromISR + 92
        0x08003e6c:    2001        .       MOVS     r0,#1
        0x08003e6e:    e000        ..      B        0x8003e72 ; xQueueGenericSendFromISR + 94
        0x08003e70:    2000        .       MOVS     r0,#0
        0x08003e72:    b950        P.      CBNZ     r0,0x8003e8a ; xQueueGenericSendFromISR + 118
        0x08003e74:    bf00        ..      NOP      
        0x08003e76:    2050        P       MOVS     r0,#0x50
        0x08003e78:    f3808811    ....    MSR      BASEPRI,r0
        0x08003e7c:    f3bf8f4f    ..O.    DSB      
        0x08003e80:    f3bf8f6f    ..o.    ISB      
        0x08003e84:    bf00        ..      NOP      
        0x08003e86:    bf00        ..      NOP      
        0x08003e88:    e7fe        ..      B        0x8003e88 ; xQueueGenericSendFromISR + 116
        0x08003e8a:    f7fffc17    ....    BL       vPortValidateInterruptPriority ; 0x80036bc
        0x08003e8e:    bf00        ..      NOP      
        0x08003e90:    2150        P!      MOVS     r1,#0x50
        0x08003e92:    f3ef8011    ....    MRS      r0,BASEPRI
        0x08003e96:    f3818811    ....    MSR      BASEPRI,r1
        0x08003e9a:    f3bf8f4f    ..O.    DSB      
        0x08003e9e:    f3bf8f6f    ..o.    ISB      
        0x08003ea2:    bf00        ..      NOP      
        0x08003ea4:    4605        .F      MOV      r5,r0
        0x08003ea6:    6ba0        .k      LDR      r0,[r4,#0x38]
        0x08003ea8:    6be1        .k      LDR      r1,[r4,#0x3c]
        0x08003eaa:    4288        .B      CMP      r0,r1
        0x08003eac:    d301        ..      BCC      0x8003eb2 ; xQueueGenericSendFromISR + 158
        0x08003eae:    2e02        ..      CMP      r6,#2
        0x08003eb0:    d123        #.      BNE      0x8003efa ; xQueueGenericSendFromISR + 230
        0x08003eb2:    f994b045    ..E.    LDRSB    r11,[r4,#0x45]
        0x08003eb6:    4632        2F      MOV      r2,r6
        0x08003eb8:    4651        QF      MOV      r1,r10
        0x08003eba:    4620         F      MOV      r0,r4
        0x08003ebc:    f7fefd6b    ..k.    BL       prvCopyDataToQueue ; 0x8002996
        0x08003ec0:    f10b0001    ....    ADD      r0,r11,#1
        0x08003ec4:    b988        ..      CBNZ     r0,0x8003eea ; xQueueGenericSendFromISR + 214
        0x08003ec6:    6a60        `j      LDR      r0,[r4,#0x24]
        0x08003ec8:    b908        ..      CBNZ     r0,0x8003ece ; xQueueGenericSendFromISR + 186
        0x08003eca:    2001        .       MOVS     r0,#1
        0x08003ecc:    e000        ..      B        0x8003ed0 ; xQueueGenericSendFromISR + 188
        0x08003ece:    2000        .       MOVS     r0,#0
        0x08003ed0:    b980        ..      CBNZ     r0,0x8003ef4 ; xQueueGenericSendFromISR + 224
        0x08003ed2:    f1040024    ..$.    ADD      r0,r4,#0x24
        0x08003ed6:    f000faab    ....    BL       xTaskRemoveFromEventList ; 0x8004430
        0x08003eda:    b158        X.      CBZ      r0,0x8003ef4 ; xQueueGenericSendFromISR + 224
        0x08003edc:    f1b80f00    ....    CMP      r8,#0
        0x08003ee0:    d008        ..      BEQ      0x8003ef4 ; xQueueGenericSendFromISR + 224
        0x08003ee2:    2001        .       MOVS     r0,#1
        0x08003ee4:    f8c80000    ....    STR      r0,[r8,#0]
        0x08003ee8:    e004        ..      B        0x8003ef4 ; xQueueGenericSendFromISR + 224
        0x08003eea:    f10b0001    ....    ADD      r0,r11,#1
        0x08003eee:    b240        @.      SXTB     r0,r0
        0x08003ef0:    f8840045    ..E.    STRB     r0,[r4,#0x45]
        0x08003ef4:    f04f0901    O...    MOV      r9,#1
        0x08003ef8:    e001        ..      B        0x8003efe ; xQueueGenericSendFromISR + 234
        0x08003efa:    f04f0900    O...    MOV      r9,#0
        0x08003efe:    bf00        ..      NOP      
        0x08003f00:    f3858811    ....    MSR      BASEPRI,r5
        0x08003f04:    bf00        ..      NOP      
        0x08003f06:    4648        HF      MOV      r0,r9
        0x08003f08:    e8bd9ff0    ....    POP      {r4-r12,pc}
    i.xQueueReceive
    xQueueReceive
        0x08003f0c:    e92d41f7    -..A    PUSH     {r0-r2,r4-r8,lr}
        0x08003f10:    b083        ..      SUB      sp,sp,#0xc
        0x08003f12:    4605        .F      MOV      r5,r0
        0x08003f14:    460e        .F      MOV      r6,r1
        0x08003f16:    f04f0800    O...    MOV      r8,#0
        0x08003f1a:    462c        ,F      MOV      r4,r5
        0x08003f1c:    b954        T.      CBNZ     r4,0x8003f34 ; xQueueReceive + 40
        0x08003f1e:    bf00        ..      NOP      
        0x08003f20:    2050        P       MOVS     r0,#0x50
        0x08003f22:    f3808811    ....    MSR      BASEPRI,r0
        0x08003f26:    f3bf8f4f    ..O.    DSB      
        0x08003f2a:    f3bf8f6f    ..o.    ISB      
        0x08003f2e:    bf00        ..      NOP      
        0x08003f30:    bf00        ..      NOP      
        0x08003f32:    e7fe        ..      B        0x8003f32 ; xQueueReceive + 38
        0x08003f34:    b90e        ..      CBNZ     r6,0x8003f3a ; xQueueReceive + 46
        0x08003f36:    6c20         l      LDR      r0,[r4,#0x40]
        0x08003f38:    b908        ..      CBNZ     r0,0x8003f3e ; xQueueReceive + 50
        0x08003f3a:    2001        .       MOVS     r0,#1
        0x08003f3c:    e000        ..      B        0x8003f40 ; xQueueReceive + 52
        0x08003f3e:    2000        .       MOVS     r0,#0
        0x08003f40:    b950        P.      CBNZ     r0,0x8003f58 ; xQueueReceive + 76
        0x08003f42:    bf00        ..      NOP      
        0x08003f44:    2050        P       MOVS     r0,#0x50
        0x08003f46:    f3808811    ....    MSR      BASEPRI,r0
        0x08003f4a:    f3bf8f4f    ..O.    DSB      
        0x08003f4e:    f3bf8f6f    ..o.    ISB      
        0x08003f52:    bf00        ..      NOP      
        0x08003f54:    bf00        ..      NOP      
        0x08003f56:    e7fe        ..      B        0x8003f56 ; xQueueReceive + 74
        0x08003f58:    f000f960    ..`.    BL       xTaskGetSchedulerState ; 0x800421c
        0x08003f5c:    b908        ..      CBNZ     r0,0x8003f62 ; xQueueReceive + 86
        0x08003f5e:    9805        ..      LDR      r0,[sp,#0x14]
        0x08003f60:    b908        ..      CBNZ     r0,0x8003f66 ; xQueueReceive + 90
        0x08003f62:    2001        .       MOVS     r0,#1
        0x08003f64:    e000        ..      B        0x8003f68 ; xQueueReceive + 92
        0x08003f66:    2000        .       MOVS     r0,#0
        0x08003f68:    b950        P.      CBNZ     r0,0x8003f80 ; xQueueReceive + 116
        0x08003f6a:    bf00        ..      NOP      
        0x08003f6c:    2050        P       MOVS     r0,#0x50
        0x08003f6e:    f3808811    ....    MSR      BASEPRI,r0
        0x08003f72:    f3bf8f4f    ..O.    DSB      
        0x08003f76:    f3bf8f6f    ..o.    ISB      
        0x08003f7a:    bf00        ..      NOP      
        0x08003f7c:    bf00        ..      NOP      
        0x08003f7e:    e7fe        ..      B        0x8003f7e ; xQueueReceive + 114
        0x08003f80:    bf00        ..      NOP      
        0x08003f82:    f7fffaf5    ....    BL       vPortEnterCritical ; 0x8003570
        0x08003f86:    6ba7        .k      LDR      r7,[r4,#0x38]
        0x08003f88:    b1f7        ..      CBZ      r7,0x8003fc8 ; xQueueReceive + 188
        0x08003f8a:    4631        1F      MOV      r1,r6
        0x08003f8c:    4620         F      MOV      r0,r4
        0x08003f8e:    f7fefced    ....    BL       prvCopyDataFromQueue ; 0x800296c
        0x08003f92:    1e78        x.      SUBS     r0,r7,#1
        0x08003f94:    63a0        .c      STR      r0,[r4,#0x38]
        0x08003f96:    6920         i      LDR      r0,[r4,#0x10]
        0x08003f98:    b908        ..      CBNZ     r0,0x8003f9e ; xQueueReceive + 146
        0x08003f9a:    2001        .       MOVS     r0,#1
        0x08003f9c:    e000        ..      B        0x8003fa0 ; xQueueReceive + 148
        0x08003f9e:    2000        .       MOVS     r0,#0
        0x08003fa0:    b960        `.      CBNZ     r0,0x8003fbc ; xQueueReceive + 176
        0x08003fa2:    f1040010    ....    ADD      r0,r4,#0x10
        0x08003fa6:    f000fa43    ..C.    BL       xTaskRemoveFromEventList ; 0x8004430
        0x08003faa:    b138        8.      CBZ      r0,0x8003fbc ; xQueueReceive + 176
        0x08003fac:    f04f5080    O..P    MOV      r0,#0x10000000
        0x08003fb0:    492f        /I      LDR      r1,[pc,#188] ; [0x8004070] = 0xe000ed04
        0x08003fb2:    6008        .`      STR      r0,[r1,#0]
        0x08003fb4:    f3bf8f4f    ..O.    DSB      
        0x08003fb8:    f3bf8f6f    ..o.    ISB      
        0x08003fbc:    f7fffb02    ....    BL       vPortExitCritical ; 0x80035c4
        0x08003fc0:    2001        .       MOVS     r0,#1
        0x08003fc2:    b006        ..      ADD      sp,sp,#0x18
        0x08003fc4:    e8bd81f0    ....    POP      {r4-r8,pc}
        0x08003fc8:    9805        ..      LDR      r0,[sp,#0x14]
        0x08003fca:    b918        ..      CBNZ     r0,0x8003fd4 ; xQueueReceive + 200
        0x08003fcc:    f7fffafa    ....    BL       vPortExitCritical ; 0x80035c4
        0x08003fd0:    2000        .       MOVS     r0,#0
        0x08003fd2:    e7f6        ..      B        0x8003fc2 ; xQueueReceive + 182
        0x08003fd4:    f1b80f00    ....    CMP      r8,#0
        0x08003fd8:    d104        ..      BNE      0x8003fe4 ; xQueueReceive + 216
        0x08003fda:    a801        ..      ADD      r0,sp,#4
        0x08003fdc:    f7fffc14    ....    BL       vTaskInternalSetTimeOutState ; 0x8003808
        0x08003fe0:    f04f0801    O...    MOV      r8,#1
        0x08003fe4:    f7fffaee    ....    BL       vPortExitCritical ; 0x80035c4
        0x08003fe8:    f7fffcb8    ....    BL       vTaskSuspendAll ; 0x800395c
        0x08003fec:    f7fffac0    ....    BL       vPortEnterCritical ; 0x8003570
        0x08003ff0:    f9940044    ..D.    LDRSB    r0,[r4,#0x44]
        0x08003ff4:    1c40        @.      ADDS     r0,r0,#1
        0x08003ff6:    b910        ..      CBNZ     r0,0x8003ffe ; xQueueReceive + 242
        0x08003ff8:    2000        .       MOVS     r0,#0
        0x08003ffa:    f8840044    ..D.    STRB     r0,[r4,#0x44]
        0x08003ffe:    f9940045    ..E.    LDRSB    r0,[r4,#0x45]
        0x08004002:    1c40        @.      ADDS     r0,r0,#1
        0x08004004:    b910        ..      CBNZ     r0,0x800400c ; xQueueReceive + 256
        0x08004006:    2000        .       MOVS     r0,#0
        0x08004008:    f8840045    ..E.    STRB     r0,[r4,#0x45]
        0x0800400c:    f7fffada    ....    BL       vPortExitCritical ; 0x80035c4
        0x08004010:    a905        ..      ADD      r1,sp,#0x14
        0x08004012:    a801        ..      ADD      r0,sp,#4
        0x08004014:    f000f82e    ....    BL       xTaskCheckForTimeOut ; 0x8004074
        0x08004018:    b9f0        ..      CBNZ     r0,0x8004058 ; xQueueReceive + 332
        0x0800401a:    4620         F      MOV      r0,r4
        0x0800401c:    f7fefe8c    ....    BL       prvIsQueueEmpty ; 0x8002d38
        0x08004020:    b1a0        ..      CBZ      r0,0x800404c ; xQueueReceive + 320
        0x08004022:    f1040024    ..$.    ADD      r0,r4,#0x24
        0x08004026:    9905        ..      LDR      r1,[sp,#0x14]
        0x08004028:    f7fffc00    ....    BL       vTaskPlaceOnEventList ; 0x800382c
        0x0800402c:    4620         F      MOV      r0,r4
        0x0800402e:    f7fff84c    ..L.    BL       prvUnlockQueue ; 0x80030ca
        0x08004032:    f000fa49    ..I.    BL       xTaskResumeAll ; 0x80044c8
        0x08004036:    2800        .(      CMP      r0,#0
        0x08004038:    d1a3        ..      BNE      0x8003f82 ; xQueueReceive + 118
        0x0800403a:    f04f5080    O..P    MOV      r0,#0x10000000
        0x0800403e:    490c        .I      LDR      r1,[pc,#48] ; [0x8004070] = 0xe000ed04
        0x08004040:    6008        .`      STR      r0,[r1,#0]
        0x08004042:    f3bf8f4f    ..O.    DSB      
        0x08004046:    f3bf8f6f    ..o.    ISB      
        0x0800404a:    e79a        ..      B        0x8003f82 ; xQueueReceive + 118
        0x0800404c:    4620         F      MOV      r0,r4
        0x0800404e:    f7fff83c    ..<.    BL       prvUnlockQueue ; 0x80030ca
        0x08004052:    f000fa39    ..9.    BL       xTaskResumeAll ; 0x80044c8
        0x08004056:    e794        ..      B        0x8003f82 ; xQueueReceive + 118
        0x08004058:    4620         F      MOV      r0,r4
        0x0800405a:    f7fff836    ..6.    BL       prvUnlockQueue ; 0x80030ca
        0x0800405e:    f000fa33    ..3.    BL       xTaskResumeAll ; 0x80044c8
        0x08004062:    4620         F      MOV      r0,r4
        0x08004064:    f7fefe68    ..h.    BL       prvIsQueueEmpty ; 0x8002d38
        0x08004068:    2800        .(      CMP      r0,#0
        0x0800406a:    d08a        ..      BEQ      0x8003f82 ; xQueueReceive + 118
        0x0800406c:    2000        .       MOVS     r0,#0
        0x0800406e:    e7a8        ..      B        0x8003fc2 ; xQueueReceive + 182
    $d
        0x08004070:    e000ed04    ....    DCD    3758157060
    $t
    i.xTaskCheckForTimeOut
    xTaskCheckForTimeOut
        0x08004074:    b570        p.      PUSH     {r4-r6,lr}
        0x08004076:    4605        .F      MOV      r5,r0
        0x08004078:    460c        .F      MOV      r4,r1
        0x0800407a:    b955        U.      CBNZ     r5,0x8004092 ; xTaskCheckForTimeOut + 30
        0x0800407c:    bf00        ..      NOP      
        0x0800407e:    2050        P       MOVS     r0,#0x50
        0x08004080:    f3808811    ....    MSR      BASEPRI,r0
        0x08004084:    f3bf8f4f    ..O.    DSB      
        0x08004088:    f3bf8f6f    ..o.    ISB      
        0x0800408c:    bf00        ..      NOP      
        0x0800408e:    bf00        ..      NOP      
        0x08004090:    e7fe        ..      B        0x8004090 ; xTaskCheckForTimeOut + 28
        0x08004092:    b954        T.      CBNZ     r4,0x80040aa ; xTaskCheckForTimeOut + 54
        0x08004094:    bf00        ..      NOP      
        0x08004096:    2050        P       MOVS     r0,#0x50
        0x08004098:    f3808811    ....    MSR      BASEPRI,r0
        0x0800409c:    f3bf8f4f    ..O.    DSB      
        0x080040a0:    f3bf8f6f    ..o.    ISB      
        0x080040a4:    bf00        ..      NOP      
        0x080040a6:    bf00        ..      NOP      
        0x080040a8:    e7fe        ..      B        0x80040a8 ; xTaskCheckForTimeOut + 52
        0x080040aa:    f7fffa61    ..a.    BL       vPortEnterCritical ; 0x8003570
        0x080040ae:    4812        .H      LDR      r0,[pc,#72] ; [0x80040f8] = 0x20000030
        0x080040b0:    6802        .h      LDR      r2,[r0,#0]
        0x080040b2:    6868        hh      LDR      r0,[r5,#4]
        0x080040b4:    1a13        ..      SUBS     r3,r2,r0
        0x080040b6:    6820         h      LDR      r0,[r4,#0]
        0x080040b8:    1c40        @.      ADDS     r0,r0,#1
        0x080040ba:    b908        ..      CBNZ     r0,0x80040c0 ; xTaskCheckForTimeOut + 76
        0x080040bc:    2600        .&      MOVS     r6,#0
        0x080040be:    e017        ..      B        0x80040f0 ; xTaskCheckForTimeOut + 124
        0x080040c0:    490e        .I      LDR      r1,[pc,#56] ; [0x80040fc] = 0x20000044
        0x080040c2:    6828        (h      LDR      r0,[r5,#0]
        0x080040c4:    6809        .h      LDR      r1,[r1,#0]
        0x080040c6:    4288        .B      CMP      r0,r1
        0x080040c8:    d004        ..      BEQ      0x80040d4 ; xTaskCheckForTimeOut + 96
        0x080040ca:    6868        hh      LDR      r0,[r5,#4]
        0x080040cc:    4290        .B      CMP      r0,r2
        0x080040ce:    d801        ..      BHI      0x80040d4 ; xTaskCheckForTimeOut + 96
        0x080040d0:    2601        .&      MOVS     r6,#1
        0x080040d2:    e00d        ..      B        0x80040f0 ; xTaskCheckForTimeOut + 124
        0x080040d4:    6820         h      LDR      r0,[r4,#0]
        0x080040d6:    4298        .B      CMP      r0,r3
        0x080040d8:    d907        ..      BLS      0x80040ea ; xTaskCheckForTimeOut + 118
        0x080040da:    6820         h      LDR      r0,[r4,#0]
        0x080040dc:    1ac0        ..      SUBS     r0,r0,r3
        0x080040de:    6020         `      STR      r0,[r4,#0]
        0x080040e0:    4628        (F      MOV      r0,r5
        0x080040e2:    f7fffb91    ....    BL       vTaskInternalSetTimeOutState ; 0x8003808
        0x080040e6:    2600        .&      MOVS     r6,#0
        0x080040e8:    e002        ..      B        0x80040f0 ; xTaskCheckForTimeOut + 124
        0x080040ea:    2000        .       MOVS     r0,#0
        0x080040ec:    6020         `      STR      r0,[r4,#0]
        0x080040ee:    2601        .&      MOVS     r6,#1
        0x080040f0:    f7fffa68    ..h.    BL       vPortExitCritical ; 0x80035c4
        0x080040f4:    4630        0F      MOV      r0,r6
        0x080040f6:    bd70        p.      POP      {r4-r6,pc}
    $d
        0x080040f8:    20000030    0..     DCD    536870960
        0x080040fc:    20000044    D..     DCD    536870980
    $t
    i.xTaskCreate
    xTaskCreate
        0x08004100:    e92d4fff    -..O    PUSH     {r0-r11,lr}
        0x08004104:    b085        ..      SUB      sp,sp,#0x14
        0x08004106:    4680        .F      MOV      r8,r0
        0x08004108:    4689        .F      MOV      r9,r1
        0x0800410a:    4617        .F      MOV      r7,r2
        0x0800410c:    e9ddab12    ....    LDRD     r10,r11,[sp,#0x48]
        0x08004110:    00b8        ..      LSLS     r0,r7,#2
        0x08004112:    f7fff819    ....    BL       pvPortMalloc ; 0x8003148
        0x08004116:    4606        .F      MOV      r6,r0
        0x08004118:    b156        V.      CBZ      r6,0x8004130 ; xTaskCreate + 48
        0x0800411a:    205c        \       MOVS     r0,#0x5c
        0x0800411c:    f7fff814    ....    BL       pvPortMalloc ; 0x8003148
        0x08004120:    4604        .F      MOV      r4,r0
        0x08004122:    b10c        ..      CBZ      r4,0x8004128 ; xTaskCreate + 40
        0x08004124:    6326        &c      STR      r6,[r4,#0x30]
        0x08004126:    e004        ..      B        0x8004132 ; xTaskCreate + 50
        0x08004128:    4630        0F      MOV      r0,r6
        0x0800412a:    f7fffa69    ..i.    BL       vPortFree ; 0x8003600
        0x0800412e:    e000        ..      B        0x8004132 ; xTaskCreate + 50
        0x08004130:    2400        .$      MOVS     r4,#0
        0x08004132:    b18c        ..      CBZ      r4,0x8004158 ; xTaskCreate + 88
        0x08004134:    2000        .       MOVS     r0,#0
        0x08004136:    f8840059    ..Y.    STRB     r0,[r4,#0x59]
        0x0800413a:    e9cdab00    ....    STRD     r10,r11,[sp,#0]
        0x0800413e:    e9cd4002    ...@    STRD     r4,r0,[sp,#8]
        0x08004142:    463a        :F      MOV      r2,r7
        0x08004144:    4649        IF      MOV      r1,r9
        0x08004146:    4640        @F      MOV      r0,r8
        0x08004148:    9b08        ..      LDR      r3,[sp,#0x20]
        0x0800414a:    f7fefd06    ....    BL       prvInitialiseNewTask ; 0x8002b5a
        0x0800414e:    4620         F      MOV      r0,r4
        0x08004150:    f7fefb52    ..R.    BL       prvAddNewTaskToReadyList ; 0x80027f8
        0x08004154:    2501        .%      MOVS     r5,#1
        0x08004156:    e001        ..      B        0x800415c ; xTaskCreate + 92
        0x08004158:    f04f35ff    O..5    MOV      r5,#0xffffffff
        0x0800415c:    4628        (F      MOV      r0,r5
        0x0800415e:    b009        ..      ADD      sp,sp,#0x24
        0x08004160:    e8bd8ff0    ....    POP      {r4-r11,pc}
    i.xTaskCreateStatic
    xTaskCreateStatic
        0x08004164:    e92d4ff0    -..O    PUSH     {r4-r11,lr}
        0x08004168:    b085        ..      SUB      sp,sp,#0x14
        0x0800416a:    4607        .F      MOV      r7,r0
        0x0800416c:    4688        .F      MOV      r8,r1
        0x0800416e:    4691        .F      MOV      r9,r2
        0x08004170:    469a        .F      MOV      r10,r3
        0x08004172:    e9ddb60e    ....    LDRD     r11,r6,[sp,#0x38]
        0x08004176:    9c10        ..      LDR      r4,[sp,#0x40]
        0x08004178:    b10e        ..      CBZ      r6,0x800417e ; xTaskCreateStatic + 26
        0x0800417a:    2001        .       MOVS     r0,#1
        0x0800417c:    e000        ..      B        0x8004180 ; xTaskCreateStatic + 28
        0x0800417e:    2000        .       MOVS     r0,#0
        0x08004180:    b950        P.      CBNZ     r0,0x8004198 ; xTaskCreateStatic + 52
        0x08004182:    bf00        ..      NOP      
        0x08004184:    2050        P       MOVS     r0,#0x50
        0x08004186:    f3808811    ....    MSR      BASEPRI,r0
        0x0800418a:    f3bf8f4f    ..O.    DSB      
        0x0800418e:    f3bf8f6f    ..o.    ISB      
        0x08004192:    bf00        ..      NOP      
        0x08004194:    bf00        ..      NOP      
        0x08004196:    e7fe        ..      B        0x8004196 ; xTaskCreateStatic + 50
        0x08004198:    b10c        ..      CBZ      r4,0x800419e ; xTaskCreateStatic + 58
        0x0800419a:    2001        .       MOVS     r0,#1
        0x0800419c:    e000        ..      B        0x80041a0 ; xTaskCreateStatic + 60
        0x0800419e:    2000        .       MOVS     r0,#0
        0x080041a0:    b950        P.      CBNZ     r0,0x80041b8 ; xTaskCreateStatic + 84
        0x080041a2:    bf00        ..      NOP      
        0x080041a4:    2050        P       MOVS     r0,#0x50
        0x080041a6:    f3808811    ....    MSR      BASEPRI,r0
        0x080041aa:    f3bf8f4f    ..O.    DSB      
        0x080041ae:    f3bf8f6f    ..o.    ISB      
        0x080041b2:    bf00        ..      NOP      
        0x080041b4:    bf00        ..      NOP      
        0x080041b6:    e7fe        ..      B        0x80041b6 ; xTaskCreateStatic + 82
        0x080041b8:    205c        \       MOVS     r0,#0x5c
        0x080041ba:    9003        ..      STR      r0,[sp,#0xc]
        0x080041bc:    9803        ..      LDR      r0,[sp,#0xc]
        0x080041be:    285c        \(      CMP      r0,#0x5c
        0x080041c0:    d101        ..      BNE      0x80041c6 ; xTaskCreateStatic + 98
        0x080041c2:    2001        .       MOVS     r0,#1
        0x080041c4:    e000        ..      B        0x80041c8 ; xTaskCreateStatic + 100
        0x080041c6:    2000        .       MOVS     r0,#0
        0x080041c8:    b950        P.      CBNZ     r0,0x80041e0 ; xTaskCreateStatic + 124
        0x080041ca:    bf00        ..      NOP      
        0x080041cc:    2050        P       MOVS     r0,#0x50
        0x080041ce:    f3808811    ....    MSR      BASEPRI,r0
        0x080041d2:    f3bf8f4f    ..O.    DSB      
        0x080041d6:    f3bf8f6f    ..o.    ISB      
        0x080041da:    bf00        ..      NOP      
        0x080041dc:    bf00        ..      NOP      
        0x080041de:    e7fe        ..      B        0x80041de ; xTaskCreateStatic + 122
        0x080041e0:    b1b4        ..      CBZ      r4,0x8004210 ; xTaskCreateStatic + 172
        0x080041e2:    b1ae        ..      CBZ      r6,0x8004210 ; xTaskCreateStatic + 172
        0x080041e4:    4625        %F      MOV      r5,r4
        0x080041e6:    462c        ,F      MOV      r4,r5
        0x080041e8:    632e        .c      STR      r6,[r5,#0x30]
        0x080041ea:    2002        .       MOVS     r0,#2
        0x080041ec:    f8850059    ..Y.    STRB     r0,[r5,#0x59]
        0x080041f0:    2000        .       MOVS     r0,#0
        0x080041f2:    a904        ..      ADD      r1,sp,#0x10
        0x080041f4:    4653        SF      MOV      r3,r10
        0x080041f6:    464a        JF      MOV      r2,r9
        0x080041f8:    e9cdb100    ....    STRD     r11,r1,[sp,#0]
        0x080041fc:    e9cd5002    ...P    STRD     r5,r0,[sp,#8]
        0x08004200:    4641        AF      MOV      r1,r8
        0x08004202:    4638        8F      MOV      r0,r7
        0x08004204:    f7fefca9    ....    BL       prvInitialiseNewTask ; 0x8002b5a
        0x08004208:    4628        (F      MOV      r0,r5
        0x0800420a:    f7fefaf5    ....    BL       prvAddNewTaskToReadyList ; 0x80027f8
        0x0800420e:    e001        ..      B        0x8004214 ; xTaskCreateStatic + 176
        0x08004210:    2000        .       MOVS     r0,#0
        0x08004212:    9004        ..      STR      r0,[sp,#0x10]
        0x08004214:    9804        ..      LDR      r0,[sp,#0x10]
        0x08004216:    b005        ..      ADD      sp,sp,#0x14
        0x08004218:    e8bd8ff0    ....    POP      {r4-r11,pc}
    i.xTaskGetSchedulerState
    xTaskGetSchedulerState
        0x0800421c:    4905        .I      LDR      r1,[pc,#20] ; [0x8004234] = 0x20000038
        0x0800421e:    6809        .h      LDR      r1,[r1,#0]
        0x08004220:    b909        ..      CBNZ     r1,0x8004226 ; xTaskGetSchedulerState + 10
        0x08004222:    2001        .       MOVS     r0,#1
        0x08004224:    e005        ..      B        0x8004232 ; xTaskGetSchedulerState + 22
        0x08004226:    4904        .I      LDR      r1,[pc,#16] ; [0x8004238] = 0x20000054
        0x08004228:    6809        .h      LDR      r1,[r1,#0]
        0x0800422a:    b909        ..      CBNZ     r1,0x8004230 ; xTaskGetSchedulerState + 20
        0x0800422c:    2002        .       MOVS     r0,#2
        0x0800422e:    e000        ..      B        0x8004232 ; xTaskGetSchedulerState + 22
        0x08004230:    2000        .       MOVS     r0,#0
        0x08004232:    4770        pG      BX       lr
    $d
        0x08004234:    20000038    8..     DCD    536870968
        0x08004238:    20000054    T..     DCD    536870996
    $t
    i.xTaskGetTickCount
    xTaskGetTickCount
        0x0800423c:    4901        .I      LDR      r1,[pc,#4] ; [0x8004244] = 0x20000030
        0x0800423e:    6808        .h      LDR      r0,[r1,#0]
        0x08004240:    4770        pG      BX       lr
    $d
        0x08004242:    0000        ..      DCW    0
        0x08004244:    20000030    0..     DCD    536870960
    $t
    i.xTaskIncrementTick
    xTaskIncrementTick
        0x08004248:    e92d41f0    -..A    PUSH     {r4-r8,lr}
        0x0800424c:    f04f0800    O...    MOV      r8,#0
        0x08004250:    4843        CH      LDR      r0,[pc,#268] ; [0x8004360] = 0x20000054
        0x08004252:    6800        .h      LDR      r0,[r0,#0]
        0x08004254:    2800        .(      CMP      r0,#0
        0x08004256:    d176        v.      BNE      0x8004346 ; xTaskIncrementTick + 254
        0x08004258:    4842        BH      LDR      r0,[pc,#264] ; [0x8004364] = 0x20000030
        0x0800425a:    6800        .h      LDR      r0,[r0,#0]
        0x0800425c:    1c45        E.      ADDS     r5,r0,#1
        0x0800425e:    4841        AH      LDR      r0,[pc,#260] ; [0x8004364] = 0x20000030
        0x08004260:    6005        .`      STR      r5,[r0,#0]
        0x08004262:    bb15        ..      CBNZ     r5,0x80042aa ; xTaskIncrementTick + 98
        0x08004264:    4840        @H      LDR      r0,[pc,#256] ; [0x8004368] = 0x20000020
        0x08004266:    6800        .h      LDR      r0,[r0,#0]
        0x08004268:    6800        .h      LDR      r0,[r0,#0]
        0x0800426a:    b908        ..      CBNZ     r0,0x8004270 ; xTaskIncrementTick + 40
        0x0800426c:    2001        .       MOVS     r0,#1
        0x0800426e:    e000        ..      B        0x8004272 ; xTaskIncrementTick + 42
        0x08004270:    2000        .       MOVS     r0,#0
        0x08004272:    b950        P.      CBNZ     r0,0x800428a ; xTaskIncrementTick + 66
        0x08004274:    bf00        ..      NOP      
        0x08004276:    2050        P       MOVS     r0,#0x50
        0x08004278:    f3808811    ....    MSR      BASEPRI,r0
        0x0800427c:    f3bf8f4f    ..O.    DSB      
        0x08004280:    f3bf8f6f    ..o.    ISB      
        0x08004284:    bf00        ..      NOP      
        0x08004286:    bf00        ..      NOP      
        0x08004288:    e7fe        ..      B        0x8004288 ; xTaskIncrementTick + 64
        0x0800428a:    4837        7H      LDR      r0,[pc,#220] ; [0x8004368] = 0x20000020
        0x0800428c:    6807        .h      LDR      r7,[r0,#0]
        0x0800428e:    4837        7H      LDR      r0,[pc,#220] ; [0x800436c] = 0x20000024
        0x08004290:    6800        .h      LDR      r0,[r0,#0]
        0x08004292:    4935        5I      LDR      r1,[pc,#212] ; [0x8004368] = 0x20000020
        0x08004294:    6008        .`      STR      r0,[r1,#0]
        0x08004296:    4835        5H      LDR      r0,[pc,#212] ; [0x800436c] = 0x20000024
        0x08004298:    6007        .`      STR      r7,[r0,#0]
        0x0800429a:    4835        5H      LDR      r0,[pc,#212] ; [0x8004370] = 0x20000044
        0x0800429c:    6800        .h      LDR      r0,[r0,#0]
        0x0800429e:    1c40        @.      ADDS     r0,r0,#1
        0x080042a0:    4933        3I      LDR      r1,[pc,#204] ; [0x8004370] = 0x20000044
        0x080042a2:    6008        .`      STR      r0,[r1,#0]
        0x080042a4:    f7fefe64    ..d.    BL       prvResetNextTaskUnblockTime ; 0x8002f70
        0x080042a8:    bf00        ..      NOP      
        0x080042aa:    4832        2H      LDR      r0,[pc,#200] ; [0x8004374] = 0x2000004c
        0x080042ac:    6800        .h      LDR      r0,[r0,#0]
        0x080042ae:    4285        .B      CMP      r5,r0
        0x080042b0:    d33b        ;.      BCC      0x800432a ; xTaskIncrementTick + 226
        0x080042b2:    bf00        ..      NOP      
        0x080042b4:    482c        ,H      LDR      r0,[pc,#176] ; [0x8004368] = 0x20000020
        0x080042b6:    6800        .h      LDR      r0,[r0,#0]
        0x080042b8:    6800        .h      LDR      r0,[r0,#0]
        0x080042ba:    b908        ..      CBNZ     r0,0x80042c0 ; xTaskIncrementTick + 120
        0x080042bc:    2001        .       MOVS     r0,#1
        0x080042be:    e000        ..      B        0x80042c2 ; xTaskIncrementTick + 122
        0x080042c0:    2000        .       MOVS     r0,#0
        0x080042c2:    b120         .      CBZ      r0,0x80042ce ; xTaskIncrementTick + 134
        0x080042c4:    f04f30ff    O..0    MOV      r0,#0xffffffff
        0x080042c8:    492a        *I      LDR      r1,[pc,#168] ; [0x8004374] = 0x2000004c
        0x080042ca:    6008        .`      STR      r0,[r1,#0]
        0x080042cc:    e02c        ,.      B        0x8004328 ; xTaskIncrementTick + 224
        0x080042ce:    4826        &H      LDR      r0,[pc,#152] ; [0x8004368] = 0x20000020
        0x080042d0:    6800        .h      LDR      r0,[r0,#0]
        0x080042d2:    68c0        .h      LDR      r0,[r0,#0xc]
        0x080042d4:    68c4        .h      LDR      r4,[r0,#0xc]
        0x080042d6:    6866        fh      LDR      r6,[r4,#4]
        0x080042d8:    42b5        .B      CMP      r5,r6
        0x080042da:    d202        ..      BCS      0x80042e2 ; xTaskIncrementTick + 154
        0x080042dc:    4825        %H      LDR      r0,[pc,#148] ; [0x8004374] = 0x2000004c
        0x080042de:    6006        .`      STR      r6,[r0,#0]
        0x080042e0:    e022        ".      B        0x8004328 ; xTaskIncrementTick + 224
        0x080042e2:    1d20         .      ADDS     r0,r4,#4
        0x080042e4:    f7fff8e2    ....    BL       uxListRemove ; 0x80034ac
        0x080042e8:    6aa0        .j      LDR      r0,[r4,#0x28]
        0x080042ea:    b118        ..      CBZ      r0,0x80042f4 ; xTaskIncrementTick + 172
        0x080042ec:    f1040018    ....    ADD      r0,r4,#0x18
        0x080042f0:    f7fff8dc    ....    BL       uxListRemove ; 0x80034ac
        0x080042f4:    4920         I      LDR      r1,[pc,#128] ; [0x8004378] = 0x20000034
        0x080042f6:    6ae0        .j      LDR      r0,[r4,#0x2c]
        0x080042f8:    6809        .h      LDR      r1,[r1,#0]
        0x080042fa:    4288        .B      CMP      r0,r1
        0x080042fc:    d902        ..      BLS      0x8004304 ; xTaskIncrementTick + 188
        0x080042fe:    491e        .I      LDR      r1,[pc,#120] ; [0x8004378] = 0x20000034
        0x08004300:    6ae0        .j      LDR      r0,[r4,#0x2c]
        0x08004302:    6008        .`      STR      r0,[r1,#0]
        0x08004304:    6ae1        .j      LDR      r1,[r4,#0x2c]
        0x08004306:    eb010181    ....    ADD      r1,r1,r1,LSL #2
        0x0800430a:    4a1c        .J      LDR      r2,[pc,#112] ; [0x800437c] = 0x200005b0
        0x0800430c:    eb020081    ....    ADD      r0,r2,r1,LSL #2
        0x08004310:    1d21        !.      ADDS     r1,r4,#4
        0x08004312:    f7fff921    ..!.    BL       vListInsertEnd ; 0x8003558
        0x08004316:    491a        .I      LDR      r1,[pc,#104] ; [0x8004380] = 0x2000001c
        0x08004318:    6ae0        .j      LDR      r0,[r4,#0x2c]
        0x0800431a:    6809        .h      LDR      r1,[r1,#0]
        0x0800431c:    6ac9        .j      LDR      r1,[r1,#0x2c]
        0x0800431e:    4288        .B      CMP      r0,r1
        0x08004320:    d3c8        ..      BCC      0x80042b4 ; xTaskIncrementTick + 108
        0x08004322:    f04f0801    O...    MOV      r8,#1
        0x08004326:    e7c5        ..      B        0x80042b4 ; xTaskIncrementTick + 108
        0x08004328:    bf00        ..      NOP      
        0x0800432a:    4815        .H      LDR      r0,[pc,#84] ; [0x8004380] = 0x2000001c
        0x0800432c:    6800        .h      LDR      r0,[r0,#0]
        0x0800432e:    6ac0        .j      LDR      r0,[r0,#0x2c]
        0x08004330:    eb000080    ....    ADD      r0,r0,r0,LSL #2
        0x08004334:    4911        .I      LDR      r1,[pc,#68] ; [0x800437c] = 0x200005b0
        0x08004336:    f8510020    Q. .    LDR      r0,[r1,r0,LSL #2]
        0x0800433a:    2801        .(      CMP      r0,#1
        0x0800433c:    d901        ..      BLS      0x8004342 ; xTaskIncrementTick + 250
        0x0800433e:    f04f0801    O...    MOV      r8,#1
        0x08004342:    e005        ..      B        0x8004350 ; xTaskIncrementTick + 264
        0x08004344:    e7ff        ..      B        0x8004346 ; xTaskIncrementTick + 254
        0x08004346:    480f        .H      LDR      r0,[pc,#60] ; [0x8004384] = 0x2000003c
        0x08004348:    6800        .h      LDR      r0,[r0,#0]
        0x0800434a:    1c40        @.      ADDS     r0,r0,#1
        0x0800434c:    490d        .I      LDR      r1,[pc,#52] ; [0x8004384] = 0x2000003c
        0x0800434e:    6008        .`      STR      r0,[r1,#0]
        0x08004350:    480d        .H      LDR      r0,[pc,#52] ; [0x8004388] = 0x20000040
        0x08004352:    6800        .h      LDR      r0,[r0,#0]
        0x08004354:    b108        ..      CBZ      r0,0x800435a ; xTaskIncrementTick + 274
        0x08004356:    f04f0801    O...    MOV      r8,#1
        0x0800435a:    4640        @F      MOV      r0,r8
        0x0800435c:    e8bd81f0    ....    POP      {r4-r8,pc}
    $d
        0x08004360:    20000054    T..     DCD    536870996
        0x08004364:    20000030    0..     DCD    536870960
        0x08004368:    20000020     ..     DCD    536870944
        0x0800436c:    20000024    $..     DCD    536870948
        0x08004370:    20000044    D..     DCD    536870980
        0x08004374:    2000004c    L..     DCD    536870988
        0x08004378:    20000034    4..     DCD    536870964
        0x0800437c:    200005b0    ...     DCD    536872368
        0x08004380:    2000001c    ...     DCD    536870940
        0x08004384:    2000003c    <..     DCD    536870972
        0x08004388:    20000040    @..     DCD    536870976
    $t
    i.xTaskPriorityDisinherit
    xTaskPriorityDisinherit
        0x0800438c:    b570        p.      PUSH     {r4-r6,lr}
        0x0800438e:    4605        .F      MOV      r5,r0
        0x08004390:    462c        ,F      MOV      r4,r5
        0x08004392:    2600        .&      MOVS     r6,#0
        0x08004394:    2d00        .-      CMP      r5,#0
        0x08004396:    d043        C.      BEQ      0x8004420 ; xTaskPriorityDisinherit + 148
        0x08004398:    4822        "H      LDR      r0,[pc,#136] ; [0x8004424] = 0x2000001c
        0x0800439a:    6800        .h      LDR      r0,[r0,#0]
        0x0800439c:    4284        .B      CMP      r4,r0
        0x0800439e:    d101        ..      BNE      0x80043a4 ; xTaskPriorityDisinherit + 24
        0x080043a0:    2001        .       MOVS     r0,#1
        0x080043a2:    e000        ..      B        0x80043a6 ; xTaskPriorityDisinherit + 26
        0x080043a4:    2000        .       MOVS     r0,#0
        0x080043a6:    b950        P.      CBNZ     r0,0x80043be ; xTaskPriorityDisinherit + 50
        0x080043a8:    bf00        ..      NOP      
        0x080043aa:    2050        P       MOVS     r0,#0x50
        0x080043ac:    f3808811    ....    MSR      BASEPRI,r0
        0x080043b0:    f3bf8f4f    ..O.    DSB      
        0x080043b4:    f3bf8f6f    ..o.    ISB      
        0x080043b8:    bf00        ..      NOP      
        0x080043ba:    bf00        ..      NOP      
        0x080043bc:    e7fe        ..      B        0x80043bc ; xTaskPriorityDisinherit + 48
        0x080043be:    6d20         m      LDR      r0,[r4,#0x50]
        0x080043c0:    b950        P.      CBNZ     r0,0x80043d8 ; xTaskPriorityDisinherit + 76
        0x080043c2:    bf00        ..      NOP      
        0x080043c4:    2050        P       MOVS     r0,#0x50
        0x080043c6:    f3808811    ....    MSR      BASEPRI,r0
        0x080043ca:    f3bf8f4f    ..O.    DSB      
        0x080043ce:    f3bf8f6f    ..o.    ISB      
        0x080043d2:    bf00        ..      NOP      
        0x080043d4:    bf00        ..      NOP      
        0x080043d6:    e7fe        ..      B        0x80043d6 ; xTaskPriorityDisinherit + 74
        0x080043d8:    6d20         m      LDR      r0,[r4,#0x50]
        0x080043da:    1e40        @.      SUBS     r0,r0,#1
        0x080043dc:    6520         e      STR      r0,[r4,#0x50]
        0x080043de:    6ce1        .l      LDR      r1,[r4,#0x4c]
        0x080043e0:    6ae0        .j      LDR      r0,[r4,#0x2c]
        0x080043e2:    4288        .B      CMP      r0,r1
        0x080043e4:    d01c        ..      BEQ      0x8004420 ; xTaskPriorityDisinherit + 148
        0x080043e6:    6d20         m      LDR      r0,[r4,#0x50]
        0x080043e8:    b9d0        ..      CBNZ     r0,0x8004420 ; xTaskPriorityDisinherit + 148
        0x080043ea:    1d20         .      ADDS     r0,r4,#4
        0x080043ec:    f7fff85e    ..^.    BL       uxListRemove ; 0x80034ac
        0x080043f0:    6ce0        .l      LDR      r0,[r4,#0x4c]
        0x080043f2:    62e0        .b      STR      r0,[r4,#0x2c]
        0x080043f4:    6ae0        .j      LDR      r0,[r4,#0x2c]
        0x080043f6:    f1c00038    ..8.    RSB      r0,r0,#0x38
        0x080043fa:    61a0        .a      STR      r0,[r4,#0x18]
        0x080043fc:    490a        .I      LDR      r1,[pc,#40] ; [0x8004428] = 0x20000034
        0x080043fe:    6ae0        .j      LDR      r0,[r4,#0x2c]
        0x08004400:    6809        .h      LDR      r1,[r1,#0]
        0x08004402:    4288        .B      CMP      r0,r1
        0x08004404:    d902        ..      BLS      0x800440c ; xTaskPriorityDisinherit + 128
        0x08004406:    4908        .I      LDR      r1,[pc,#32] ; [0x8004428] = 0x20000034
        0x08004408:    6ae0        .j      LDR      r0,[r4,#0x2c]
        0x0800440a:    6008        .`      STR      r0,[r1,#0]
        0x0800440c:    6ae1        .j      LDR      r1,[r4,#0x2c]
        0x0800440e:    eb010181    ....    ADD      r1,r1,r1,LSL #2
        0x08004412:    4a06        .J      LDR      r2,[pc,#24] ; [0x800442c] = 0x200005b0
        0x08004414:    eb020081    ....    ADD      r0,r2,r1,LSL #2
        0x08004418:    1d21        !.      ADDS     r1,r4,#4
        0x0800441a:    f7fff89d    ....    BL       vListInsertEnd ; 0x8003558
        0x0800441e:    2601        .&      MOVS     r6,#1
        0x08004420:    4630        0F      MOV      r0,r6
        0x08004422:    bd70        p.      POP      {r4-r6,pc}
    $d
        0x08004424:    2000001c    ...     DCD    536870940
        0x08004428:    20000034    4..     DCD    536870964
        0x0800442c:    200005b0    ...     DCD    536872368
    $t
    i.xTaskRemoveFromEventList
    xTaskRemoveFromEventList
        0x08004430:    b570        p.      PUSH     {r4-r6,lr}
        0x08004432:    4606        .F      MOV      r6,r0
        0x08004434:    68f0        .h      LDR      r0,[r6,#0xc]
        0x08004436:    68c4        .h      LDR      r4,[r0,#0xc]
        0x08004438:    b954        T.      CBNZ     r4,0x8004450 ; xTaskRemoveFromEventList + 32
        0x0800443a:    bf00        ..      NOP      
        0x0800443c:    2050        P       MOVS     r0,#0x50
        0x0800443e:    f3808811    ....    MSR      BASEPRI,r0
        0x08004442:    f3bf8f4f    ..O.    DSB      
        0x08004446:    f3bf8f6f    ..o.    ISB      
        0x0800444a:    bf00        ..      NOP      
        0x0800444c:    bf00        ..      NOP      
        0x0800444e:    e7fe        ..      B        0x800444e ; xTaskRemoveFromEventList + 30
        0x08004450:    f1040018    ....    ADD      r0,r4,#0x18
        0x08004454:    f7fff82a    ..*.    BL       uxListRemove ; 0x80034ac
        0x08004458:    4815        .H      LDR      r0,[pc,#84] ; [0x80044b0] = 0x20000054
        0x0800445a:    6800        .h      LDR      r0,[r0,#0]
        0x0800445c:    b9a0        ..      CBNZ     r0,0x8004488 ; xTaskRemoveFromEventList + 88
        0x0800445e:    1d20         .      ADDS     r0,r4,#4
        0x08004460:    f7fff824    ..$.    BL       uxListRemove ; 0x80034ac
        0x08004464:    4913        .I      LDR      r1,[pc,#76] ; [0x80044b4] = 0x20000034
        0x08004466:    6ae0        .j      LDR      r0,[r4,#0x2c]
        0x08004468:    6809        .h      LDR      r1,[r1,#0]
        0x0800446a:    4288        .B      CMP      r0,r1
        0x0800446c:    d902        ..      BLS      0x8004474 ; xTaskRemoveFromEventList + 68
        0x0800446e:    4911        .I      LDR      r1,[pc,#68] ; [0x80044b4] = 0x20000034
        0x08004470:    6ae0        .j      LDR      r0,[r4,#0x2c]
        0x08004472:    6008        .`      STR      r0,[r1,#0]
        0x08004474:    6ae1        .j      LDR      r1,[r4,#0x2c]
        0x08004476:    eb010181    ....    ADD      r1,r1,r1,LSL #2
        0x0800447a:    4a0f        .J      LDR      r2,[pc,#60] ; [0x80044b8] = 0x200005b0
        0x0800447c:    eb020081    ....    ADD      r0,r2,r1,LSL #2
        0x08004480:    1d21        !.      ADDS     r1,r4,#4
        0x08004482:    f7fff869    ..i.    BL       vListInsertEnd ; 0x8003558
        0x08004486:    e004        ..      B        0x8004492 ; xTaskRemoveFromEventList + 98
        0x08004488:    f1040118    ....    ADD      r1,r4,#0x18
        0x0800448c:    480b        .H      LDR      r0,[pc,#44] ; [0x80044bc] = 0x20000a38
        0x0800448e:    f7fff863    ..c.    BL       vListInsertEnd ; 0x8003558
        0x08004492:    490b        .I      LDR      r1,[pc,#44] ; [0x80044c0] = 0x2000001c
        0x08004494:    6ae0        .j      LDR      r0,[r4,#0x2c]
        0x08004496:    6809        .h      LDR      r1,[r1,#0]
        0x08004498:    6ac9        .j      LDR      r1,[r1,#0x2c]
        0x0800449a:    4288        .B      CMP      r0,r1
        0x0800449c:    d904        ..      BLS      0x80044a8 ; xTaskRemoveFromEventList + 120
        0x0800449e:    2501        .%      MOVS     r5,#1
        0x080044a0:    2001        .       MOVS     r0,#1
        0x080044a2:    4908        .I      LDR      r1,[pc,#32] ; [0x80044c4] = 0x20000040
        0x080044a4:    6008        .`      STR      r0,[r1,#0]
        0x080044a6:    e000        ..      B        0x80044aa ; xTaskRemoveFromEventList + 122
        0x080044a8:    2500        .%      MOVS     r5,#0
        0x080044aa:    4628        (F      MOV      r0,r5
        0x080044ac:    bd70        p.      POP      {r4-r6,pc}
    $d
        0x080044ae:    0000        ..      DCW    0
        0x080044b0:    20000054    T..     DCD    536870996
        0x080044b4:    20000034    4..     DCD    536870964
        0x080044b8:    200005b0    ...     DCD    536872368
        0x080044bc:    20000a38    8..     DCD    536873528
        0x080044c0:    2000001c    ...     DCD    536870940
        0x080044c4:    20000040    @..     DCD    536870976
    $t
    i.xTaskResumeAll
    xTaskResumeAll
        0x080044c8:    b570        p.      PUSH     {r4-r6,lr}
        0x080044ca:    2400        .$      MOVS     r4,#0
        0x080044cc:    2600        .&      MOVS     r6,#0
        0x080044ce:    4836        6H      LDR      r0,[pc,#216] ; [0x80045a8] = 0x20000054
        0x080044d0:    6800        .h      LDR      r0,[r0,#0]
        0x080044d2:    b950        P.      CBNZ     r0,0x80044ea ; xTaskResumeAll + 34
        0x080044d4:    bf00        ..      NOP      
        0x080044d6:    2050        P       MOVS     r0,#0x50
        0x080044d8:    f3808811    ....    MSR      BASEPRI,r0
        0x080044dc:    f3bf8f4f    ..O.    DSB      
        0x080044e0:    f3bf8f6f    ..o.    ISB      
        0x080044e4:    bf00        ..      NOP      
        0x080044e6:    bf00        ..      NOP      
        0x080044e8:    e7fe        ..      B        0x80044e8 ; xTaskResumeAll + 32
        0x080044ea:    f7fff841    ..A.    BL       vPortEnterCritical ; 0x8003570
        0x080044ee:    482e        .H      LDR      r0,[pc,#184] ; [0x80045a8] = 0x20000054
        0x080044f0:    6800        .h      LDR      r0,[r0,#0]
        0x080044f2:    1e40        @.      SUBS     r0,r0,#1
        0x080044f4:    492c        ,I      LDR      r1,[pc,#176] ; [0x80045a8] = 0x20000054
        0x080044f6:    6008        .`      STR      r0,[r1,#0]
        0x080044f8:    4608        .F      MOV      r0,r1
        0x080044fa:    6800        .h      LDR      r0,[r0,#0]
        0x080044fc:    2800        .(      CMP      r0,#0
        0x080044fe:    d14e        N.      BNE      0x800459e ; xTaskResumeAll + 214
        0x08004500:    482a        *H      LDR      r0,[pc,#168] ; [0x80045ac] = 0x2000002c
        0x08004502:    6800        .h      LDR      r0,[r0,#0]
        0x08004504:    2800        .(      CMP      r0,#0
        0x08004506:    d04a        J.      BEQ      0x800459e ; xTaskResumeAll + 214
        0x08004508:    e023        #.      B        0x8004552 ; xTaskResumeAll + 138
        0x0800450a:    4829        )H      LDR      r0,[pc,#164] ; [0x80045b0] = 0x20000a38
        0x0800450c:    68c0        .h      LDR      r0,[r0,#0xc]
        0x0800450e:    68c4        .h      LDR      r4,[r0,#0xc]
        0x08004510:    f1040018    ....    ADD      r0,r4,#0x18
        0x08004514:    f7feffca    ....    BL       uxListRemove ; 0x80034ac
        0x08004518:    1d20         .      ADDS     r0,r4,#4
        0x0800451a:    f7feffc7    ....    BL       uxListRemove ; 0x80034ac
        0x0800451e:    4925        %I      LDR      r1,[pc,#148] ; [0x80045b4] = 0x20000034
        0x08004520:    6ae0        .j      LDR      r0,[r4,#0x2c]
        0x08004522:    6809        .h      LDR      r1,[r1,#0]
        0x08004524:    4288        .B      CMP      r0,r1
        0x08004526:    d902        ..      BLS      0x800452e ; xTaskResumeAll + 102
        0x08004528:    4922        "I      LDR      r1,[pc,#136] ; [0x80045b4] = 0x20000034
        0x0800452a:    6ae0        .j      LDR      r0,[r4,#0x2c]
        0x0800452c:    6008        .`      STR      r0,[r1,#0]
        0x0800452e:    6ae1        .j      LDR      r1,[r4,#0x2c]
        0x08004530:    eb010181    ....    ADD      r1,r1,r1,LSL #2
        0x08004534:    4a20         J      LDR      r2,[pc,#128] ; [0x80045b8] = 0x200005b0
        0x08004536:    eb020081    ....    ADD      r0,r2,r1,LSL #2
        0x0800453a:    1d21        !.      ADDS     r1,r4,#4
        0x0800453c:    f7fff80c    ....    BL       vListInsertEnd ; 0x8003558
        0x08004540:    491e        .I      LDR      r1,[pc,#120] ; [0x80045bc] = 0x2000001c
        0x08004542:    6ae0        .j      LDR      r0,[r4,#0x2c]
        0x08004544:    6809        .h      LDR      r1,[r1,#0]
        0x08004546:    6ac9        .j      LDR      r1,[r1,#0x2c]
        0x08004548:    4288        .B      CMP      r0,r1
        0x0800454a:    d302        ..      BCC      0x8004552 ; xTaskResumeAll + 138
        0x0800454c:    2001        .       MOVS     r0,#1
        0x0800454e:    491c        .I      LDR      r1,[pc,#112] ; [0x80045c0] = 0x20000040
        0x08004550:    6008        .`      STR      r0,[r1,#0]
        0x08004552:    4817        .H      LDR      r0,[pc,#92] ; [0x80045b0] = 0x20000a38
        0x08004554:    6800        .h      LDR      r0,[r0,#0]
        0x08004556:    b908        ..      CBNZ     r0,0x800455c ; xTaskResumeAll + 148
        0x08004558:    2001        .       MOVS     r0,#1
        0x0800455a:    e000        ..      B        0x800455e ; xTaskResumeAll + 150
        0x0800455c:    2000        .       MOVS     r0,#0
        0x0800455e:    2800        .(      CMP      r0,#0
        0x08004560:    d0d3        ..      BEQ      0x800450a ; xTaskResumeAll + 66
        0x08004562:    b10c        ..      CBZ      r4,0x8004568 ; xTaskResumeAll + 160
        0x08004564:    f7fefd04    ....    BL       prvResetNextTaskUnblockTime ; 0x8002f70
        0x08004568:    4816        .H      LDR      r0,[pc,#88] ; [0x80045c4] = 0x2000003c
        0x0800456a:    6805        .h      LDR      r5,[r0,#0]
        0x0800456c:    b165        e.      CBZ      r5,0x8004588 ; xTaskResumeAll + 192
        0x0800456e:    bf00        ..      NOP      
        0x08004570:    f7fffe6a    ..j.    BL       xTaskIncrementTick ; 0x8004248
        0x08004574:    b110        ..      CBZ      r0,0x800457c ; xTaskResumeAll + 180
        0x08004576:    2001        .       MOVS     r0,#1
        0x08004578:    4911        .I      LDR      r1,[pc,#68] ; [0x80045c0] = 0x20000040
        0x0800457a:    6008        .`      STR      r0,[r1,#0]
        0x0800457c:    1e6d        m.      SUBS     r5,r5,#1
        0x0800457e:    2d00        .-      CMP      r5,#0
        0x08004580:    d1f6        ..      BNE      0x8004570 ; xTaskResumeAll + 168
        0x08004582:    2000        .       MOVS     r0,#0
        0x08004584:    490f        .I      LDR      r1,[pc,#60] ; [0x80045c4] = 0x2000003c
        0x08004586:    6008        .`      STR      r0,[r1,#0]
        0x08004588:    480d        .H      LDR      r0,[pc,#52] ; [0x80045c0] = 0x20000040
        0x0800458a:    6800        .h      LDR      r0,[r0,#0]
        0x0800458c:    b138        8.      CBZ      r0,0x800459e ; xTaskResumeAll + 214
        0x0800458e:    2601        .&      MOVS     r6,#1
        0x08004590:    0730        0.      LSLS     r0,r6,#28
        0x08004592:    490d        .I      LDR      r1,[pc,#52] ; [0x80045c8] = 0xe000ed04
        0x08004594:    6008        .`      STR      r0,[r1,#0]
        0x08004596:    f3bf8f4f    ..O.    DSB      
        0x0800459a:    f3bf8f6f    ..o.    ISB      
        0x0800459e:    f7fff811    ....    BL       vPortExitCritical ; 0x80035c4
        0x080045a2:    4630        0F      MOV      r0,r6
        0x080045a4:    bd70        p.      POP      {r4-r6,pc}
    $d
        0x080045a6:    0000        ..      DCW    0
        0x080045a8:    20000054    T..     DCD    536870996
        0x080045ac:    2000002c    ,..     DCD    536870956
        0x080045b0:    20000a38    8..     DCD    536873528
        0x080045b4:    20000034    4..     DCD    536870964
        0x080045b8:    200005b0    ...     DCD    536872368
        0x080045bc:    2000001c    ...     DCD    536870940
        0x080045c0:    20000040    @..     DCD    536870976
        0x080045c4:    2000003c    <..     DCD    536870972
        0x080045c8:    e000ed04    ....    DCD    3758157060
    $t
    i.xTimerCreateTimerTask
    xTimerCreateTimerTask
        0x080045cc:    b510        ..      PUSH     {r4,lr}
        0x080045ce:    b086        ..      SUB      sp,sp,#0x18
        0x080045d0:    2400        .$      MOVS     r4,#0
        0x080045d2:    f7fef96d    ..m.    BL       prvCheckForValidListAndQueue ; 0x80028b0
        0x080045d6:    4816        .H      LDR      r0,[pc,#88] ; [0x8004630] = 0x20000060
        0x080045d8:    6800        .h      LDR      r0,[r0,#0]
        0x080045da:    b1d0        ..      CBZ      r0,0x8004612 ; xTimerCreateTimerTask + 70
        0x080045dc:    2000        .       MOVS     r0,#0
        0x080045de:    9005        ..      STR      r0,[sp,#0x14]
        0x080045e0:    9004        ..      STR      r0,[sp,#0x10]
        0x080045e2:    aa03        ..      ADD      r2,sp,#0xc
        0x080045e4:    a904        ..      ADD      r1,sp,#0x10
        0x080045e6:    a805        ..      ADD      r0,sp,#0x14
        0x080045e8:    f7feff80    ....    BL       vApplicationGetTimerTaskMemory ; 0x80034ec
        0x080045ec:    2202        ."      MOVS     r2,#2
        0x080045ee:    e9dd1004    ....    LDRD     r1,r0,[sp,#0x10]
        0x080045f2:    2300        .#      MOVS     r3,#0
        0x080045f4:    e9cd2100    ...!    STRD     r2,r1,[sp,#0]
        0x080045f8:    9002        ..      STR      r0,[sp,#8]
        0x080045fa:    a10e        ..      ADR      r1,{pc}+0x3a ; 0x8004634
        0x080045fc:    480f        .H      LDR      r0,[pc,#60] ; [0x800463c] = 0x80030b1
        0x080045fe:    9a03        ..      LDR      r2,[sp,#0xc]
        0x08004600:    f7fffdb0    ....    BL       xTaskCreateStatic ; 0x8004164
        0x08004604:    490e        .I      LDR      r1,[pc,#56] ; [0x8004640] = 0x20000064
        0x08004606:    6008        .`      STR      r0,[r1,#0]
        0x08004608:    4608        .F      MOV      r0,r1
        0x0800460a:    6800        .h      LDR      r0,[r0,#0]
        0x0800460c:    b100        ..      CBZ      r0,0x8004610 ; xTimerCreateTimerTask + 68
        0x0800460e:    2401        .$      MOVS     r4,#1
        0x08004610:    bf00        ..      NOP      
        0x08004612:    b954        T.      CBNZ     r4,0x800462a ; xTimerCreateTimerTask + 94
        0x08004614:    bf00        ..      NOP      
        0x08004616:    2050        P       MOVS     r0,#0x50
        0x08004618:    f3808811    ....    MSR      BASEPRI,r0
        0x0800461c:    f3bf8f4f    ..O.    DSB      
        0x08004620:    f3bf8f6f    ..o.    ISB      
        0x08004624:    bf00        ..      NOP      
        0x08004626:    bf00        ..      NOP      
        0x08004628:    e7fe        ..      B        0x8004628 ; xTimerCreateTimerTask + 92
        0x0800462a:    4620         F      MOV      r0,r4
        0x0800462c:    b006        ..      ADD      sp,sp,#0x18
        0x0800462e:    bd10        ..      POP      {r4,pc}
    $d
        0x08004630:    20000060    `..     DCD    536871008
        0x08004634:    20726d54    Tmr     DCD    544370004
        0x08004638:    00637653    Svc.    DCD    6518355
        0x0800463c:    080030b1    .0..    DCD    134230193
        0x08004640:    20000064    d..     DCD    536871012
    $t
    i.xTimerGenericCommand
    xTimerGenericCommand
        0x08004644:    e92d47ff    -..G    PUSH     {r0-r10,lr}
        0x08004648:    4604        .F      MOV      r4,r0
        0x0800464a:    460d        .F      MOV      r5,r1
        0x0800464c:    4616        .F      MOV      r6,r2
        0x0800464e:    461f        .F      MOV      r7,r3
        0x08004650:    f8dd8030    ..0.    LDR      r8,[sp,#0x30]
        0x08004654:    f04f0900    O...    MOV      r9,#0
        0x08004658:    b954        T.      CBNZ     r4,0x8004670 ; xTimerGenericCommand + 44
        0x0800465a:    bf00        ..      NOP      
        0x0800465c:    2050        P       MOVS     r0,#0x50
        0x0800465e:    f3808811    ....    MSR      BASEPRI,r0
        0x08004662:    f3bf8f4f    ..O.    DSB      
        0x08004666:    f3bf8f6f    ..o.    ISB      
        0x0800466a:    bf00        ..      NOP      
        0x0800466c:    bf00        ..      NOP      
        0x0800466e:    e7fe        ..      B        0x800466e ; xTimerGenericCommand + 42
        0x08004670:    4814        .H      LDR      r0,[pc,#80] ; [0x80046c4] = 0x20000060
        0x08004672:    6800        .h      LDR      r0,[r0,#0]
        0x08004674:    b310        ..      CBZ      r0,0x80046bc ; xTimerGenericCommand + 120
        0x08004676:    9500        ..      STR      r5,[sp,#0]
        0x08004678:    9601        ..      STR      r6,[sp,#4]
        0x0800467a:    9402        ..      STR      r4,[sp,#8]
        0x0800467c:    2d06        .-      CMP      r5,#6
        0x0800467e:    da15        ..      BGE      0x80046ac ; xTimerGenericCommand + 104
        0x08004680:    f7fffdcc    ....    BL       xTaskGetSchedulerState ; 0x800421c
        0x08004684:    2802        .(      CMP      r0,#2
        0x08004686:    d108        ..      BNE      0x800469a ; xTimerGenericCommand + 86
        0x08004688:    2300        .#      MOVS     r3,#0
        0x0800468a:    4642        BF      MOV      r2,r8
        0x0800468c:    4669        iF      MOV      r1,sp
        0x0800468e:    480d        .H      LDR      r0,[pc,#52] ; [0x80046c4] = 0x20000060
        0x08004690:    6800        .h      LDR      r0,[r0,#0]
        0x08004692:    f7fffaeb    ....    BL       xQueueGenericSend ; 0x8003c6c
        0x08004696:    4681        .F      MOV      r9,r0
        0x08004698:    e010        ..      B        0x80046bc ; xTimerGenericCommand + 120
        0x0800469a:    2300        .#      MOVS     r3,#0
        0x0800469c:    461a        .F      MOV      r2,r3
        0x0800469e:    4669        iF      MOV      r1,sp
        0x080046a0:    4808        .H      LDR      r0,[pc,#32] ; [0x80046c4] = 0x20000060
        0x080046a2:    6800        .h      LDR      r0,[r0,#0]
        0x080046a4:    f7fffae2    ....    BL       xQueueGenericSend ; 0x8003c6c
        0x080046a8:    4681        .F      MOV      r9,r0
        0x080046aa:    e007        ..      B        0x80046bc ; xTimerGenericCommand + 120
        0x080046ac:    2300        .#      MOVS     r3,#0
        0x080046ae:    463a        :F      MOV      r2,r7
        0x080046b0:    4669        iF      MOV      r1,sp
        0x080046b2:    4804        .H      LDR      r0,[pc,#16] ; [0x80046c4] = 0x20000060
        0x080046b4:    6800        .h      LDR      r0,[r0,#0]
        0x080046b6:    f7fffbad    ....    BL       xQueueGenericSendFromISR ; 0x8003e14
        0x080046ba:    4681        .F      MOV      r9,r0
        0x080046bc:    4648        HF      MOV      r0,r9
        0x080046be:    b004        ..      ADD      sp,sp,#0x10
        0x080046c0:    e8bd87f0    ....    POP      {r4-r10,pc}
    $d
        0x080046c4:    20000060    `..     DCD    536871008
    $d.realdata
    .constdata
    defaultTask_attributes
        0x080046c8:    08004704    .G..    DCD    134235908
        0x080046cc:    00000000    ....    DCD    0
        0x080046d0:    00000000    ....    DCD    0
        0x080046d4:    00000000    ....    DCD    0
        0x080046d8:    00000000    ....    DCD    0
        0x080046dc:    00000200    ....    DCD    512
        0x080046e0:    00000018    ....    DCD    24
        0x080046e4:    00000000    ....    DCD    0
        0x080046e8:    00000000    ....    DCD    0
    .constdata
    AHBPrescTable
        0x080046ec:    00000000    ....    DCD    0
        0x080046f0:    00000000    ....    DCD    0
        0x080046f4:    04030201    ....    DCD    67305985
        0x080046f8:    09080706    ....    DCD    151521030
    APBPrescTable
        0x080046fc:    00000000    ....    DCD    0
        0x08004700:    04030201    ....    DCD    67305985
    .conststring
        0x08004704:    61666564    defa    DCD    1634100580
        0x08004708:    54746c75    ultT    DCD    1416916085
        0x0800470c:    006b7361    ask.    DCD    7041889
    Region$$Table$$Base
        0x08004710:    08004730    0G..    DCD    134235952
        0x08004714:    20000000    ...     DCD    536870912
        0x08004718:    00000098    ....    DCD    152
        0x0800471c:    08002102    .!..    DCD    134226178
        0x08004720:    080047c8    .G..    DCD    134236104
        0x08004724:    20000098    ...     DCD    536871064
        0x08004728:    000021b0    .!..    DCD    8624
        0x0800472c:    08002112    .!..    DCD    134226194
    Region$$Table$$Limit

** Section #2 'RW_IRAM1' (SHT_PROGBITS) [SHF_ALLOC + SHF_WRITE]
    Size   : 152 bytes (alignment 4)
    Address: 0x20000000


** Section #3 'RW_IRAM1' (SHT_NOBITS) [SHF_ALLOC + SHF_WRITE]
    Size   : 8624 bytes (alignment 8)
    Address: 0x20000098


** Section #4 '.debug_abbrev' (SHT_PROGBITS)
    Size   : 1476 bytes


** Section #5 '.debug_frame' (SHT_PROGBITS)
    Size   : 4796 bytes


** Section #6 '.debug_info' (SHT_PROGBITS)
    Size   : 102520 bytes


** Section #7 '.debug_line' (SHT_PROGBITS)
    Size   : 38800 bytes


** Section #8 '.debug_loc' (SHT_PROGBITS)
    Size   : 11012 bytes


** Section #9 '.debug_macinfo' (SHT_PROGBITS)
    Size   : 543332 bytes


** Section #10 '.debug_pubnames' (SHT_PROGBITS)
    Size   : 5175 bytes


** Section #11 '.symtab' (SHT_SYMTAB)
    Size   : 14400 bytes (alignment 4)
    String table #12 '.strtab'
    Last local symbol no. 628


** Section #12 '.strtab' (SHT_STRTAB)
    Size   : 13584 bytes


** Section #13 '.note' (SHT_NOTE)
    Size   : 28 bytes (alignment 4)


** Section #14 '.comment' (SHT_PROGBITS)
    Size   : 49260 bytes


** Section #15 '.shstrtab' (SHT_STRTAB)
    Size   : 156 bytes


address     size       variable name                            type
0x2000008c  0x1        ucMaxSysCallPriority                     uint8_t

address     size       variable name                            type
0x20000090  0x4        ulMaxPRIGROUPValue                       uint32_t

address     size       variable name                            type
0x20000088  0x4        uxCriticalNesting                        UBaseType_t

address     size       variable name                            type
0x20000078  0x4        pxEnd                                    pointer to BlockLink_t

address     size       variable name                            type
0x20001244  0xc00      ucHeap                                   array[3072] of uint8_t

address     size       variable name                            type
0x20000084  0x4        xBlockAllocatedBit                       size_t

address     size       variable name                            type
0x2000007c  0x4        xFreeBytesRemaining                      size_t

address     size       variable name                            type
0x20000080  0x4        xMinimumEverFreeBytesRemaining           size_t

address     size       variable name                            type
0x20000070  0x8        xStart                                   BlockLink_t
0x20000070  0x4        xStart.pxNextFreeBlock                   pointer to A_BLOCK_LINK
0x20000074  0x4        xStart.xBlockSize                        size_t

address     size       variable name                            type
0x20000be8  0x200      Idle_Stack                               array[128] of StackType_t

address     size       variable name                            type
0x20000b8c  0x5c       Idle_TCB                                 StaticTask_t
0x20000b8c  0x4        Idle_TCB.pxDummy1                        pointer to unknown Type 
0x20000b90  0x28       Idle_TCB.xDummy3                         array[2] of StaticListItem_t
0x20000bb8  0x4        Idle_TCB.uxDummy5                        UBaseType_t
0x20000bbc  0x4        Idle_TCB.pxDummy6                        pointer to unknown Type 
0x20000bc0  0x10       Idle_TCB.ucDummy7                        array[16] of uint8_t
0x20000bd0  0x8        Idle_TCB.uxDummy10                       array[2] of UBaseType_t
0x20000bd8  0x8        Idle_TCB.uxDummy12                       array[2] of UBaseType_t
0x20000be0  0x4        Idle_TCB.ulDummy18                       uint32_t
0x20000be4  0x1        Idle_TCB.ucDummy19                       uint8_t
0x20000be5  0x1        Idle_TCB.uxDummy20                       uint8_t

address     size       variable name                            type
0x2000006c  0x4        KernelState                              osKernelState_t

address     size       variable name                            type
0x20000e44  0x400      Timer_Stack                              array[256] of StackType_t

address     size       variable name                            type
0x20000de8  0x5c       Timer_TCB                                StaticTask_t
0x20000de8  0x4        Timer_TCB.pxDummy1                       pointer to unknown Type 
0x20000dec  0x28       Timer_TCB.xDummy3                        array[2] of StaticListItem_t
0x20000e14  0x4        Timer_TCB.uxDummy5                       UBaseType_t
0x20000e18  0x4        Timer_TCB.pxDummy6                       pointer to unknown Type 
0x20000e1c  0x10       Timer_TCB.ucDummy7                       array[16] of uint8_t
0x20000e2c  0x8        Timer_TCB.uxDummy10                      array[2] of UBaseType_t
0x20000e34  0x8        Timer_TCB.uxDummy12                      array[2] of UBaseType_t
0x20000e3c  0x4        Timer_TCB.ulDummy18                      uint32_t
0x20000e40  0x1        Timer_TCB.ucDummy19                      uint8_t
0x20000e41  0x1        Timer_TCB.uxDummy20                      uint8_t

address     size       variable name                            type
0x20000058  0x4        pxCurrentTimerList                       pointer to List_t

address     size       variable name                            type
0x2000005c  0x4        pxOverflowTimerList                      pointer to List_t

address     size       variable name                            type
0x20000a74  0x14       xActiveTimerList1                        List_t
0x20000a74  0x4        xActiveTimerList1.uxNumberOfItems        volatile UBaseType_t
0x20000a78  0x4        xActiveTimerList1.pxIndex                pointer to ListItem_t
0x20000a7c  0xc        xActiveTimerList1.xListEnd               MiniListItem_t
0x20000a7c  0x4        xActiveTimerList1.xListEnd.xItemValue    TickType_t
0x20000a80  0x4        xActiveTimerList1.xListEnd.pxNext        pointer to xLIST_ITEM
0x20000a84  0x4        xActiveTimerList1.xListEnd.pxPrevious    pointer to xLIST_ITEM

address     size       variable name                            type
0x20000a88  0x14       xActiveTimerList2                        List_t
0x20000a88  0x4        xActiveTimerList2.uxNumberOfItems        volatile UBaseType_t
0x20000a8c  0x4        xActiveTimerList2.pxIndex                pointer to ListItem_t
0x20000a90  0xc        xActiveTimerList2.xListEnd               MiniListItem_t
0x20000a90  0x4        xActiveTimerList2.xListEnd.xItemValue    TickType_t
0x20000a94  0x4        xActiveTimerList2.xListEnd.pxNext        pointer to xLIST_ITEM
0x20000a98  0x4        xActiveTimerList2.xListEnd.pxPrevious    pointer to xLIST_ITEM

address     size       variable name                            type
0x20000060  0x4        xTimerQueue                              QueueHandle_t

address     size       variable name                            type
0x20000064  0x4        xTimerTaskHandle                         TaskHandle_t

address     size       variable name                            type
0x2000001c  0x4        pxCurrentTCB                             volatile pointer to TCB_t

address     size       variable name                            type
0x20000020  0x4        pxDelayedTaskList                        volatile pointer to List_t

address     size       variable name                            type
0x20000024  0x4        pxOverflowDelayedTaskList                volatile pointer to List_t

address     size       variable name                            type
0x200005b0  0x460      pxReadyTasksLists                        array[56] of List_t

address     size       variable name                            type
0x2000002c  0x4        uxCurrentNumberOfTasks                   volatile UBaseType_t

address     size       variable name                            type
0x20000028  0x4        uxDeletedTasksWaitingCleanUp             volatile UBaseType_t

address     size       variable name                            type
0x2000003c  0x4        uxPendedTicks                            volatile UBaseType_t

address     size       variable name                            type
0x20000054  0x4        uxSchedulerSuspended                     volatile UBaseType_t

address     size       variable name                            type
0x20000048  0x4        uxTaskNumber                             UBaseType_t

address     size       variable name                            type
0x20000034  0x4        uxTopReadyPriority                       volatile UBaseType_t

address     size       variable name                            type
0x20000a10  0x14       xDelayedTaskList1                        List_t
0x20000a10  0x4        xDelayedTaskList1.uxNumberOfItems        volatile UBaseType_t
0x20000a14  0x4        xDelayedTaskList1.pxIndex                pointer to ListItem_t
0x20000a18  0xc        xDelayedTaskList1.xListEnd               MiniListItem_t
0x20000a18  0x4        xDelayedTaskList1.xListEnd.xItemValue    TickType_t
0x20000a1c  0x4        xDelayedTaskList1.xListEnd.pxNext        pointer to xLIST_ITEM
0x20000a20  0x4        xDelayedTaskList1.xListEnd.pxPrevious    pointer to xLIST_ITEM

address     size       variable name                            type
0x20000a24  0x14       xDelayedTaskList2                        List_t
0x20000a24  0x4        xDelayedTaskList2.uxNumberOfItems        volatile UBaseType_t
0x20000a28  0x4        xDelayedTaskList2.pxIndex                pointer to ListItem_t
0x20000a2c  0xc        xDelayedTaskList2.xListEnd               MiniListItem_t
0x20000a2c  0x4        xDelayedTaskList2.xListEnd.xItemValue    TickType_t
0x20000a30  0x4        xDelayedTaskList2.xListEnd.pxNext        pointer to xLIST_ITEM
0x20000a34  0x4        xDelayedTaskList2.xListEnd.pxPrevious    pointer to xLIST_ITEM

address     size       variable name                            type
0x20000050  0x4        xIdleTaskHandle                          TaskHandle_t

address     size       variable name                            type
0x2000004c  0x4        xNextTaskUnblockTime                     volatile TickType_t

address     size       variable name                            type
0x20000044  0x4        xNumOfOverflows                          volatile BaseType_t

address     size       variable name                            type
0x20000a38  0x14       xPendingReadyList                        List_t
0x20000a38  0x4        xPendingReadyList.uxNumberOfItems        volatile UBaseType_t
0x20000a3c  0x4        xPendingReadyList.pxIndex                pointer to ListItem_t
0x20000a40  0xc        xPendingReadyList.xListEnd               MiniListItem_t
0x20000a40  0x4        xPendingReadyList.xListEnd.xItemValue    TickType_t
0x20000a44  0x4        xPendingReadyList.xListEnd.pxNext        pointer to xLIST_ITEM
0x20000a48  0x4        xPendingReadyList.xListEnd.pxPrevious    pointer to xLIST_ITEM

address     size       variable name                            type
0x20000038  0x4        xSchedulerRunning                        volatile BaseType_t

address     size       variable name                            type
0x20000a60  0x14       xSuspendedTaskList                       List_t
0x20000a60  0x4        xSuspendedTaskList.uxNumberOfItems       volatile UBaseType_t
0x20000a64  0x4        xSuspendedTaskList.pxIndex               pointer to ListItem_t
0x20000a68  0xc        xSuspendedTaskList.xListEnd              MiniListItem_t
0x20000a68  0x4        xSuspendedTaskList.xListEnd.xItemValue   TickType_t
0x20000a6c  0x4        xSuspendedTaskList.xListEnd.pxNext       pointer to xLIST_ITEM
0x20000a70  0x4        xSuspendedTaskList.xListEnd.pxPrevious   pointer to xLIST_ITEM

address     size       variable name                            type
0x20000a4c  0x14       xTasksWaitingTermination                 List_t
0x20000a4c  0x4        xTasksWaitingTermination.uxNumberOfItems volatile UBaseType_t
0x20000a50  0x4        xTasksWaitingTermination.pxIndex         pointer to ListItem_t
0x20000a54  0xc        xTasksWaitingTermination.xListEnd        MiniListItem_t
0x20000a54  0x4        xTasksWaitingTermination.xListEnd.xItemValue TickType_t
0x20000a58  0x4        xTasksWaitingTermination.xListEnd.pxNext pointer to xLIST_ITEM
0x20000a5c  0x4        xTasksWaitingTermination.xListEnd.pxPrevious pointer to xLIST_ITEM

address     size       variable name                            type
0x20000030  0x4        xTickCount                               volatile TickType_t

address     size       variable name                            type
0x20000040  0x4        xYieldPending                            volatile BaseType_t

address     size       variable name                            type
0x20000570  0x40       xQueueRegistry                           array[8] of QueueRegistryItem_t

address     size       variable name                            type
0x20000017  0x1        key1_val                                 volatile uint8_t

address     size       variable name                            type
0x20000018  0x1        key2_val                                 volatile uint8_t

address     size       variable name                            type
0x20000016  0x1        rx_data                                  volatile uint8_t

address     size       variable name                            type
0x20000015  0x1        rxcplt_flag                              volatile uint8_t

address     size       variable name                            type
0x20000014  0x1        txcplt_flag                              volatile uint8_t

address     size       variable name                            type
0x080046ec  0x10       AHBPrescTable                            array[16] of const uint8_t

address     size       variable name                            type
0x080046fc  0x8        APBPrescTable                            array[8] of const uint8_t

address     size       variable name                            type
0x20000010  0x4        SystemCoreClock                          uint32_t

address     size       variable name                            type
0x20000004  0x4        uwTick                                   volatile uint32_t

address     size       variable name                            type
0x2000000c  0x1        uwTickFreq                               HAL_TickFreqTypeDef

address     size       variable name                            type
0x20000008  0x4        uwTickPrio                               uint32_t

address     size       variable name                            type
0x20000528  0x48       htim8                                    TIM_HandleTypeDef
0x20000528  0x4        htim8.Instance                           pointer to TIM_TypeDef
0x2000052c  0x18       htim8.Init                               TIM_Base_InitTypeDef
0x2000052c  0x4        htim8.Init.Prescaler                     uint32_t
0x20000530  0x4        htim8.Init.CounterMode                   uint32_t
0x20000534  0x4        htim8.Init.Period                        uint32_t
0x20000538  0x4        htim8.Init.ClockDivision                 uint32_t
0x2000053c  0x4        htim8.Init.RepetitionCounter             uint32_t
0x20000540  0x4        htim8.Init.AutoReloadPreload             uint32_t
0x20000544  0x1      * htim8.Channel                            HAL_TIM_ActiveChannel
0x20000548  0x1c       htim8.hdma                               array[7] of pointer to DMA_HandleTypeDef
0x20000564  0x1        htim8.Lock                               HAL_LockTypeDef
0x20000565  0x1        htim8.State                              volatile HAL_TIM_StateTypeDef
0x20000566  0x4        htim8.ChannelState                       array[4] of volatile HAL_TIM_ChannelStateTypeDef
0x2000056a  0x4        htim8.ChannelNState                      array[4] of volatile HAL_TIM_ChannelStateTypeDef
0x2000056e  0x1        htim8.DMABurstState                      volatile HAL_TIM_DMABurstStateTypeDef

address     size       variable name                            type
0x200004a0  0x44       huart1                                   UART_HandleTypeDef
0x200004a0  0x4        huart1.Instance                          pointer to USART_TypeDef
0x200004a4  0x1c       huart1.Init                              UART_InitTypeDef
0x200004a4  0x4        huart1.Init.BaudRate                     uint32_t
0x200004a8  0x4        huart1.Init.WordLength                   uint32_t
0x200004ac  0x4        huart1.Init.StopBits                     uint32_t
0x200004b0  0x4        huart1.Init.Parity                       uint32_t
0x200004b4  0x4        huart1.Init.Mode                         uint32_t
0x200004b8  0x4        huart1.Init.HwFlowCtl                    uint32_t
0x200004bc  0x4        huart1.Init.OverSampling                 uint32_t
0x200004c0  0x4        huart1.pTxBuffPtr                        pointer to uint8_t
0x200004c4  0x2        huart1.TxXferSize                        uint16_t
0x200004c6  0x2        huart1.TxXferCount                       volatile uint16_t
0x200004c8  0x4        huart1.pRxBuffPtr                        pointer to uint8_t
0x200004cc  0x2        huart1.RxXferSize                        uint16_t
0x200004ce  0x2        huart1.RxXferCount                       volatile uint16_t
0x200004d0  0x4        huart1.ReceptionType                     volatile HAL_UART_RxTypeTypeDef
0x200004d4  0x4        huart1.hdmatx                            pointer to DMA_HandleTypeDef
0x200004d8  0x4        huart1.hdmarx                            pointer to DMA_HandleTypeDef
0x200004dc  0x1        huart1.Lock                              HAL_LockTypeDef
0x200004dd  0x1        huart1.gState                            volatile HAL_UART_StateTypeDef
0x200004de  0x1      * huart1.RxState                           volatile HAL_UART_StateTypeDef
0x200004e0  0x4        huart1.ErrorCode                         volatile uint32_t

address     size       variable name                            type
0x200004e4  0x44       huart3                                   UART_HandleTypeDef
0x200004e4  0x4        huart3.Instance                          pointer to USART_TypeDef
0x200004e8  0x1c       huart3.Init                              UART_InitTypeDef
0x200004e8  0x4        huart3.Init.BaudRate                     uint32_t
0x200004ec  0x4        huart3.Init.WordLength                   uint32_t
0x200004f0  0x4        huart3.Init.StopBits                     uint32_t
0x200004f4  0x4        huart3.Init.Parity                       uint32_t
0x200004f8  0x4        huart3.Init.Mode                         uint32_t
0x200004fc  0x4        huart3.Init.HwFlowCtl                    uint32_t
0x20000500  0x4        huart3.Init.OverSampling                 uint32_t
0x20000504  0x4        huart3.pTxBuffPtr                        pointer to uint8_t
0x20000508  0x2        huart3.TxXferSize                        uint16_t
0x2000050a  0x2        huart3.TxXferCount                       volatile uint16_t
0x2000050c  0x4        huart3.pRxBuffPtr                        pointer to uint8_t
0x20000510  0x2        huart3.RxXferSize                        uint16_t
0x20000512  0x2        huart3.RxXferCount                       volatile uint16_t
0x20000514  0x4        huart3.ReceptionType                     volatile HAL_UART_RxTypeTypeDef
0x20000518  0x4        huart3.hdmatx                            pointer to DMA_HandleTypeDef
0x2000051c  0x4        huart3.hdmarx                            pointer to DMA_HandleTypeDef
0x20000520  0x1        huart3.Lock                              HAL_LockTypeDef
0x20000521  0x1        huart3.gState                            volatile HAL_UART_StateTypeDef
0x20000522  0x1      * huart3.RxState                           volatile HAL_UART_StateTypeDef
0x20000524  0x4        huart3.ErrorCode                         volatile uint32_t

address     size       variable name                            type
0x20000000  0x4        defaultTaskHandle                        osThreadId_t

address     size       variable name                            type
0x080046c8  0x24       defaultTask_attributes                   const osThreadAttr_t
0x080046c8  0x4        defaultTask_attributes.name              pointer to const char
0x080046cc  0x4        defaultTask_attributes.attr_bits         uint32_t
0x080046d0  0x4        defaultTask_attributes.cb_mem            pointer to unknown Type 
0x080046d4  0x4        defaultTask_attributes.cb_size           uint32_t
0x080046d8  0x4        defaultTask_attributes.stack_mem         pointer to unknown Type 
0x080046dc  0x4        defaultTask_attributes.stack_size        uint32_t
0x080046e0  0x4        defaultTask_attributes.priority          osPriority_t
0x080046e4  0x4        defaultTask_attributes.tz_module         TZ_ModuleId_t
0x080046e8  0x4        defaultTask_attributes.reserved          uint32_t

address     size       variable name                            type
0x20000098  0x408      test_buffer                              ring_buffer
0x20000098  0x400      test_buffer.buffer                       array[1024] of unsigned char
0x20000498  0x4        test_buffer.pW                           volatile unsigned int
0x2000049c  0x4        test_buffer.pR                           volatile unsigned int

